
stm32f103c6_Drivers.elf:     file format elf32-littlearm

Sections:
Idx Name          Size      VMA       LMA       File off  Algn
  0 .isr_vector   00000130  08000000  08000000  00010000  2**0
                  CONTENTS, ALLOC, LOAD, READONLY, DATA
  1 .text         00000abc  08000130  08000130  00010130  2**2
                  CONTENTS, ALLOC, LOAD, READONLY, CODE
  2 .rodata       00000060  08000bec  08000bec  00010bec  2**2
                  CONTENTS, ALLOC, LOAD, READONLY, DATA
  3 .ARM.extab    00000000  08000c4c  08000c4c  00010c54  2**0
                  CONTENTS
  4 .ARM          00000000  08000c4c  08000c4c  00010c54  2**0
                  CONTENTS
  5 .preinit_array 00000000  08000c4c  08000c54  00010c54  2**0
                  CONTENTS, ALLOC, LOAD, DATA
  6 .init_array   00000004  08000c4c  08000c4c  00010c4c  2**2
                  CONTENTS, ALLOC, LOAD, DATA
  7 .fini_array   00000004  08000c50  08000c50  00010c50  2**2
                  CONTENTS, ALLOC, LOAD, DATA
  8 .data         00000000  20000000  20000000  00010c54  2**0
                  CONTENTS, ALLOC, LOAD, DATA
  9 .bss          0000006c  20000000  08000c54  00020000  2**2
                  ALLOC
 10 ._user_heap_stack 00000604  2000006c  08000c54  0002006c  2**0
                  ALLOC
 11 .ARM.attributes 00000029  00000000  00000000  00010c54  2**0
                  CONTENTS, READONLY
 12 .debug_info   00004108  00000000  00000000  00010c7d  2**0
                  CONTENTS, READONLY, DEBUGGING
 13 .debug_abbrev 00000a29  00000000  00000000  00014d85  2**0
                  CONTENTS, READONLY, DEBUGGING
 14 .debug_loc    00000b78  00000000  00000000  000157ae  2**0
                  CONTENTS, READONLY, DEBUGGING
 15 .debug_aranges 000001e0  00000000  00000000  00016328  2**3
                  CONTENTS, READONLY, DEBUGGING
 16 .debug_ranges 00000188  00000000  00000000  00016508  2**3
                  CONTENTS, READONLY, DEBUGGING
 17 .debug_macro  00000ab3  00000000  00000000  00016690  2**0
                  CONTENTS, READONLY, DEBUGGING
 18 .debug_line   000021da  00000000  00000000  00017143  2**0
                  CONTENTS, READONLY, DEBUGGING
 19 .debug_str    0000a815  00000000  00000000  0001931d  2**0
                  CONTENTS, READONLY, DEBUGGING
 20 .comment      0000007b  00000000  00000000  00023b32  2**0
                  CONTENTS, READONLY
 21 .debug_frame  000005f4  00000000  00000000  00023bb0  2**2
                  CONTENTS, READONLY, DEBUGGING

Disassembly of section .text:

08000130 <__do_global_dtors_aux>:
 8000130:	b510      	push	{r4, lr}
 8000132:	4c05      	ldr	r4, [pc, #20]	; (8000148 <__do_global_dtors_aux+0x18>)
 8000134:	7823      	ldrb	r3, [r4, #0]
 8000136:	b933      	cbnz	r3, 8000146 <__do_global_dtors_aux+0x16>
 8000138:	4b04      	ldr	r3, [pc, #16]	; (800014c <__do_global_dtors_aux+0x1c>)
 800013a:	b113      	cbz	r3, 8000142 <__do_global_dtors_aux+0x12>
 800013c:	4804      	ldr	r0, [pc, #16]	; (8000150 <__do_global_dtors_aux+0x20>)
 800013e:	f3af 8000 	nop.w
 8000142:	2301      	movs	r3, #1
 8000144:	7023      	strb	r3, [r4, #0]
 8000146:	bd10      	pop	{r4, pc}
 8000148:	20000000 	.word	0x20000000
 800014c:	00000000 	.word	0x00000000
 8000150:	08000bd4 	.word	0x08000bd4

08000154 <frame_dummy>:
 8000154:	b508      	push	{r3, lr}
 8000156:	4b03      	ldr	r3, [pc, #12]	; (8000164 <frame_dummy+0x10>)
 8000158:	b11b      	cbz	r3, 8000162 <frame_dummy+0xe>
 800015a:	4903      	ldr	r1, [pc, #12]	; (8000168 <frame_dummy+0x14>)
 800015c:	4803      	ldr	r0, [pc, #12]	; (800016c <frame_dummy+0x18>)
 800015e:	f3af 8000 	nop.w
 8000162:	bd08      	pop	{r3, pc}
 8000164:	00000000 	.word	0x00000000
 8000168:	20000004 	.word	0x20000004
 800016c:	08000bd4 	.word	0x08000bd4

08000170 <CALL_BACK>:
    }
}

unsigned char ch;

void CALL_BACK(void){
 8000170:	b580      	push	{r7, lr}
 8000172:	af00      	add	r7, sp, #0
	MCAL_USART_ReceiveData(USART1, &ch, Disable);
 8000174:	2201      	movs	r2, #1
 8000176:	4905      	ldr	r1, [pc, #20]	; (800018c <CALL_BACK+0x1c>)
 8000178:	4805      	ldr	r0, [pc, #20]	; (8000190 <CALL_BACK+0x20>)
 800017a:	f000 fc55 	bl	8000a28 <MCAL_USART_ReceiveData>
	MCAL_USART_TransmitData(USART1, &ch, Enable);
 800017e:	2200      	movs	r2, #0
 8000180:	4902      	ldr	r1, [pc, #8]	; (800018c <CALL_BACK+0x1c>)
 8000182:	4803      	ldr	r0, [pc, #12]	; (8000190 <CALL_BACK+0x20>)
 8000184:	f000 fc1a 	bl	80009bc <MCAL_USART_TransmitData>
}
 8000188:	bf00      	nop
 800018a:	bd80      	pop	{r7, pc}
 800018c:	20000028 	.word	0x20000028
 8000190:	40013800 	.word	0x40013800

08000194 <main>:

int main(void)
{
 8000194:	b580      	push	{r7, lr}
 8000196:	b086      	sub	sp, #24
 8000198:	af00      	add	r7, sp, #0
	USART_Config Usart_cfg;
	Usart_cfg.BaudRate = USART_BaudRate_115200;
 800019a:	f44f 33e1 	mov.w	r3, #115200	; 0x1c200
 800019e:	60bb      	str	r3, [r7, #8]
	Usart_cfg.HwFlowControl = USART_No_HwFlowControl;
 80001a0:	2300      	movs	r3, #0
 80001a2:	73fb      	strb	r3, [r7, #15]
	Usart_cfg.Enable_IQR = USART_Enable_IQR_RXNE;
 80001a4:	2320      	movs	r3, #32
 80001a6:	743b      	strb	r3, [r7, #16]
	Usart_cfg.P_IRQ_CallBack = CALL_BACK;
 80001a8:	4b07      	ldr	r3, [pc, #28]	; (80001c8 <main+0x34>)
 80001aa:	617b      	str	r3, [r7, #20]
	Usart_cfg.Parity = USART_NoParity;
 80001ac:	2300      	movs	r3, #0
 80001ae:	737b      	strb	r3, [r7, #13]
	Usart_cfg.PayLoad_Length = USART_PayLoad_Length_8DBits;
 80001b0:	2300      	movs	r3, #0
 80001b2:	733b      	strb	r3, [r7, #12]
	Usart_cfg.StopBits = USART_StopBits_1;
 80001b4:	2300      	movs	r3, #0
 80001b6:	73bb      	strb	r3, [r7, #14]
	Usart_cfg.USART_Mode=USART_MODE_TX_RX;
 80001b8:	230c      	movs	r3, #12
 80001ba:	713b      	strb	r3, [r7, #4]

	MCAL_USART_Init(USART1, &Usart_cfg);
 80001bc:	1d3b      	adds	r3, r7, #4
 80001be:	4619      	mov	r1, r3
 80001c0:	4802      	ldr	r0, [pc, #8]	; (80001cc <main+0x38>)
 80001c2:	f000 fb1b 	bl	80007fc <MCAL_USART_Init>

    while(1){
 80001c6:	e7fe      	b.n	80001c6 <main+0x32>
 80001c8:	08000171 	.word	0x08000171
 80001cc:	40013800 	.word	0x40013800

080001d0 <Reset_Handler>:

  .section .text.Reset_Handler
  .weak Reset_Handler
  .type Reset_Handler, %function
Reset_Handler:
  ldr   r0, =_estack
 80001d0:	480d      	ldr	r0, [pc, #52]	; (8000208 <LoopForever+0x2>)
  mov   sp, r0          /* set stack pointer */
 80001d2:	4685      	mov	sp, r0
/* Call the clock system intitialization function.*/
  bl  SystemInit
 80001d4:	f3af 8000 	nop.w

/* Copy the data segment initializers from flash to SRAM */
  ldr r0, =_sdata
 80001d8:	480c      	ldr	r0, [pc, #48]	; (800020c <LoopForever+0x6>)
  ldr r1, =_edata
 80001da:	490d      	ldr	r1, [pc, #52]	; (8000210 <LoopForever+0xa>)
  ldr r2, =_sidata
 80001dc:	4a0d      	ldr	r2, [pc, #52]	; (8000214 <LoopForever+0xe>)
  movs r3, #0
 80001de:	2300      	movs	r3, #0
  b LoopCopyDataInit
 80001e0:	e002      	b.n	80001e8 <LoopCopyDataInit>

080001e2 <CopyDataInit>:

CopyDataInit:
  ldr r4, [r2, r3]
 80001e2:	58d4      	ldr	r4, [r2, r3]
  str r4, [r0, r3]
 80001e4:	50c4      	str	r4, [r0, r3]
  adds r3, r3, #4
 80001e6:	3304      	adds	r3, #4

080001e8 <LoopCopyDataInit>:

LoopCopyDataInit:
  adds r4, r0, r3
 80001e8:	18c4      	adds	r4, r0, r3
  cmp r4, r1
 80001ea:	428c      	cmp	r4, r1
  bcc CopyDataInit
 80001ec:	d3f9      	bcc.n	80001e2 <CopyDataInit>

/* Zero fill the bss segment. */
  ldr r2, =_sbss
 80001ee:	4a0a      	ldr	r2, [pc, #40]	; (8000218 <LoopForever+0x12>)
  ldr r4, =_ebss
 80001f0:	4c0a      	ldr	r4, [pc, #40]	; (800021c <LoopForever+0x16>)
  movs r3, #0
 80001f2:	2300      	movs	r3, #0
  b LoopFillZerobss
 80001f4:	e001      	b.n	80001fa <LoopFillZerobss>

080001f6 <FillZerobss>:

FillZerobss:
  str  r3, [r2]
 80001f6:	6013      	str	r3, [r2, #0]
  adds r2, r2, #4
 80001f8:	3204      	adds	r2, #4

080001fa <LoopFillZerobss>:

LoopFillZerobss:
  cmp r2, r4
 80001fa:	42a2      	cmp	r2, r4
  bcc FillZerobss
 80001fc:	d3fb      	bcc.n	80001f6 <FillZerobss>

/* Call static constructors */
  bl __libc_init_array
 80001fe:	f000 fcc5 	bl	8000b8c <__libc_init_array>
/* Call the application's entry point.*/
  bl main
 8000202:	f7ff ffc7 	bl	8000194 <main>

08000206 <LoopForever>:

LoopForever:
    b LoopForever
 8000206:	e7fe      	b.n	8000206 <LoopForever>
  ldr   r0, =_estack
 8000208:	20002800 	.word	0x20002800
  ldr r0, =_sdata
 800020c:	20000000 	.word	0x20000000
  ldr r1, =_edata
 8000210:	20000000 	.word	0x20000000
  ldr r2, =_sidata
 8000214:	08000c54 	.word	0x08000c54
  ldr r2, =_sbss
 8000218:	20000000 	.word	0x20000000
  ldr r4, =_ebss
 800021c:	2000006c 	.word	0x2000006c

08000220 <ADC1_2_IRQHandler>:
 * @retval : None
*/
  .section .text.Default_Handler,"ax",%progbits
Default_Handler:
Infinite_Loop:
  b Infinite_Loop
 8000220:	e7fe      	b.n	8000220 <ADC1_2_IRQHandler>
	...

08000224 <EXTI0_IRQHandler>:
//	.word	EXTI3_IRQHandler          			/* EXTI Line3 interrupt                             */
//	.word	EXTI4_IRQHandler          			/* EXTI Line4 interrupt
//  .word	EXTI9_5_IRQHandler        			/* EXTI Line[9:5] interrupts
//  .word	EXTI15_10_IRQHandler      			/* EXTI Line[15:10] interrupts

void EXTI0_IRQHandler(void){
 8000224:	b580      	push	{r7, lr}
 8000226:	af00      	add	r7, sp, #0
	//Clear Pending register (EXTI_PR)
	EXTI->PR |= (1<<0);
 8000228:	4b07      	ldr	r3, [pc, #28]	; (8000248 <EXTI0_IRQHandler+0x24>)
 800022a:	695b      	ldr	r3, [r3, #20]
 800022c:	4a06      	ldr	r2, [pc, #24]	; (8000248 <EXTI0_IRQHandler+0x24>)
 800022e:	f043 0301 	orr.w	r3, r3, #1
 8000232:	6153      	str	r3, [r2, #20]

	//CALL IRQ
	if(GP_IRQ_CallBack[0]){
 8000234:	4b05      	ldr	r3, [pc, #20]	; (800024c <EXTI0_IRQHandler+0x28>)
 8000236:	681b      	ldr	r3, [r3, #0]
 8000238:	2b00      	cmp	r3, #0
 800023a:	d002      	beq.n	8000242 <EXTI0_IRQHandler+0x1e>
		GP_IRQ_CallBack[0]();
 800023c:	4b03      	ldr	r3, [pc, #12]	; (800024c <EXTI0_IRQHandler+0x28>)
 800023e:	681b      	ldr	r3, [r3, #0]
 8000240:	4798      	blx	r3
	}
}
 8000242:	bf00      	nop
 8000244:	bd80      	pop	{r7, pc}
 8000246:	bf00      	nop
 8000248:	40010400 	.word	0x40010400
 800024c:	2000002c 	.word	0x2000002c

08000250 <EXTI1_IRQHandler>:

void EXTI1_IRQHandler(void){
 8000250:	b580      	push	{r7, lr}
 8000252:	af00      	add	r7, sp, #0
	EXTI->PR |= (1<<1);
 8000254:	4b05      	ldr	r3, [pc, #20]	; (800026c <EXTI1_IRQHandler+0x1c>)
 8000256:	695b      	ldr	r3, [r3, #20]
 8000258:	4a04      	ldr	r2, [pc, #16]	; (800026c <EXTI1_IRQHandler+0x1c>)
 800025a:	f043 0302 	orr.w	r3, r3, #2
 800025e:	6153      	str	r3, [r2, #20]
	GP_IRQ_CallBack[1]();
 8000260:	4b03      	ldr	r3, [pc, #12]	; (8000270 <EXTI1_IRQHandler+0x20>)
 8000262:	685b      	ldr	r3, [r3, #4]
 8000264:	4798      	blx	r3
}
 8000266:	bf00      	nop
 8000268:	bd80      	pop	{r7, pc}
 800026a:	bf00      	nop
 800026c:	40010400 	.word	0x40010400
 8000270:	2000002c 	.word	0x2000002c

08000274 <EXTI2_IRQHandler>:

void EXTI2_IRQHandler(void){
 8000274:	b580      	push	{r7, lr}
 8000276:	af00      	add	r7, sp, #0
	EXTI->PR |= (1<<2);
 8000278:	4b05      	ldr	r3, [pc, #20]	; (8000290 <EXTI2_IRQHandler+0x1c>)
 800027a:	695b      	ldr	r3, [r3, #20]
 800027c:	4a04      	ldr	r2, [pc, #16]	; (8000290 <EXTI2_IRQHandler+0x1c>)
 800027e:	f043 0304 	orr.w	r3, r3, #4
 8000282:	6153      	str	r3, [r2, #20]
	GP_IRQ_CallBack[2]();
 8000284:	4b03      	ldr	r3, [pc, #12]	; (8000294 <EXTI2_IRQHandler+0x20>)
 8000286:	689b      	ldr	r3, [r3, #8]
 8000288:	4798      	blx	r3
}
 800028a:	bf00      	nop
 800028c:	bd80      	pop	{r7, pc}
 800028e:	bf00      	nop
 8000290:	40010400 	.word	0x40010400
 8000294:	2000002c 	.word	0x2000002c

08000298 <EXTI3_IRQHandler>:

void EXTI3_IRQHandler(void){
 8000298:	b580      	push	{r7, lr}
 800029a:	af00      	add	r7, sp, #0
	EXTI->PR |= (1<<3);
 800029c:	4b05      	ldr	r3, [pc, #20]	; (80002b4 <EXTI3_IRQHandler+0x1c>)
 800029e:	695b      	ldr	r3, [r3, #20]
 80002a0:	4a04      	ldr	r2, [pc, #16]	; (80002b4 <EXTI3_IRQHandler+0x1c>)
 80002a2:	f043 0308 	orr.w	r3, r3, #8
 80002a6:	6153      	str	r3, [r2, #20]
	GP_IRQ_CallBack[3]();
 80002a8:	4b03      	ldr	r3, [pc, #12]	; (80002b8 <EXTI3_IRQHandler+0x20>)
 80002aa:	68db      	ldr	r3, [r3, #12]
 80002ac:	4798      	blx	r3
}
 80002ae:	bf00      	nop
 80002b0:	bd80      	pop	{r7, pc}
 80002b2:	bf00      	nop
 80002b4:	40010400 	.word	0x40010400
 80002b8:	2000002c 	.word	0x2000002c

080002bc <EXTI4_IRQHandler>:

void EXTI4_IRQHandler(void){
 80002bc:	b580      	push	{r7, lr}
 80002be:	af00      	add	r7, sp, #0
	EXTI->PR |= (1<<4);
 80002c0:	4b05      	ldr	r3, [pc, #20]	; (80002d8 <EXTI4_IRQHandler+0x1c>)
 80002c2:	695b      	ldr	r3, [r3, #20]
 80002c4:	4a04      	ldr	r2, [pc, #16]	; (80002d8 <EXTI4_IRQHandler+0x1c>)
 80002c6:	f043 0310 	orr.w	r3, r3, #16
 80002ca:	6153      	str	r3, [r2, #20]
	GP_IRQ_CallBack[4]();
 80002cc:	4b03      	ldr	r3, [pc, #12]	; (80002dc <EXTI4_IRQHandler+0x20>)
 80002ce:	691b      	ldr	r3, [r3, #16]
 80002d0:	4798      	blx	r3
}
 80002d2:	bf00      	nop
 80002d4:	bd80      	pop	{r7, pc}
 80002d6:	bf00      	nop
 80002d8:	40010400 	.word	0x40010400
 80002dc:	2000002c 	.word	0x2000002c

080002e0 <EXTI9_5_IRQHandler>:

void EXTI9_5_IRQHandler(void){
 80002e0:	b580      	push	{r7, lr}
 80002e2:	af00      	add	r7, sp, #0
	if(EXTI->PR & (1<<5)){EXTI->PR |= (1<<5); GP_IRQ_CallBack[5](); }
 80002e4:	4b26      	ldr	r3, [pc, #152]	; (8000380 <EXTI9_5_IRQHandler+0xa0>)
 80002e6:	695b      	ldr	r3, [r3, #20]
 80002e8:	f003 0320 	and.w	r3, r3, #32
 80002ec:	2b00      	cmp	r3, #0
 80002ee:	d008      	beq.n	8000302 <EXTI9_5_IRQHandler+0x22>
 80002f0:	4b23      	ldr	r3, [pc, #140]	; (8000380 <EXTI9_5_IRQHandler+0xa0>)
 80002f2:	695b      	ldr	r3, [r3, #20]
 80002f4:	4a22      	ldr	r2, [pc, #136]	; (8000380 <EXTI9_5_IRQHandler+0xa0>)
 80002f6:	f043 0320 	orr.w	r3, r3, #32
 80002fa:	6153      	str	r3, [r2, #20]
 80002fc:	4b21      	ldr	r3, [pc, #132]	; (8000384 <EXTI9_5_IRQHandler+0xa4>)
 80002fe:	695b      	ldr	r3, [r3, #20]
 8000300:	4798      	blx	r3
	if(EXTI->PR & (1<<6)){EXTI->PR |= (1<<6); GP_IRQ_CallBack[6](); }
 8000302:	4b1f      	ldr	r3, [pc, #124]	; (8000380 <EXTI9_5_IRQHandler+0xa0>)
 8000304:	695b      	ldr	r3, [r3, #20]
 8000306:	f003 0340 	and.w	r3, r3, #64	; 0x40
 800030a:	2b00      	cmp	r3, #0
 800030c:	d008      	beq.n	8000320 <EXTI9_5_IRQHandler+0x40>
 800030e:	4b1c      	ldr	r3, [pc, #112]	; (8000380 <EXTI9_5_IRQHandler+0xa0>)
 8000310:	695b      	ldr	r3, [r3, #20]
 8000312:	4a1b      	ldr	r2, [pc, #108]	; (8000380 <EXTI9_5_IRQHandler+0xa0>)
 8000314:	f043 0340 	orr.w	r3, r3, #64	; 0x40
 8000318:	6153      	str	r3, [r2, #20]
 800031a:	4b1a      	ldr	r3, [pc, #104]	; (8000384 <EXTI9_5_IRQHandler+0xa4>)
 800031c:	699b      	ldr	r3, [r3, #24]
 800031e:	4798      	blx	r3
	if(EXTI->PR & (1<<7)){EXTI->PR |= (1<<7); GP_IRQ_CallBack[7](); }
 8000320:	4b17      	ldr	r3, [pc, #92]	; (8000380 <EXTI9_5_IRQHandler+0xa0>)
 8000322:	695b      	ldr	r3, [r3, #20]
 8000324:	f003 0380 	and.w	r3, r3, #128	; 0x80
 8000328:	2b00      	cmp	r3, #0
 800032a:	d008      	beq.n	800033e <EXTI9_5_IRQHandler+0x5e>
 800032c:	4b14      	ldr	r3, [pc, #80]	; (8000380 <EXTI9_5_IRQHandler+0xa0>)
 800032e:	695b      	ldr	r3, [r3, #20]
 8000330:	4a13      	ldr	r2, [pc, #76]	; (8000380 <EXTI9_5_IRQHandler+0xa0>)
 8000332:	f043 0380 	orr.w	r3, r3, #128	; 0x80
 8000336:	6153      	str	r3, [r2, #20]
 8000338:	4b12      	ldr	r3, [pc, #72]	; (8000384 <EXTI9_5_IRQHandler+0xa4>)
 800033a:	69db      	ldr	r3, [r3, #28]
 800033c:	4798      	blx	r3
	if(EXTI->PR & (1<<8)){EXTI->PR |= (1<<8); GP_IRQ_CallBack[8](); }
 800033e:	4b10      	ldr	r3, [pc, #64]	; (8000380 <EXTI9_5_IRQHandler+0xa0>)
 8000340:	695b      	ldr	r3, [r3, #20]
 8000342:	f403 7380 	and.w	r3, r3, #256	; 0x100
 8000346:	2b00      	cmp	r3, #0
 8000348:	d008      	beq.n	800035c <EXTI9_5_IRQHandler+0x7c>
 800034a:	4b0d      	ldr	r3, [pc, #52]	; (8000380 <EXTI9_5_IRQHandler+0xa0>)
 800034c:	695b      	ldr	r3, [r3, #20]
 800034e:	4a0c      	ldr	r2, [pc, #48]	; (8000380 <EXTI9_5_IRQHandler+0xa0>)
 8000350:	f443 7380 	orr.w	r3, r3, #256	; 0x100
 8000354:	6153      	str	r3, [r2, #20]
 8000356:	4b0b      	ldr	r3, [pc, #44]	; (8000384 <EXTI9_5_IRQHandler+0xa4>)
 8000358:	6a1b      	ldr	r3, [r3, #32]
 800035a:	4798      	blx	r3
	if(EXTI->PR & (1<<9)){EXTI->PR |= (1<<9); GP_IRQ_CallBack[9](); }
 800035c:	4b08      	ldr	r3, [pc, #32]	; (8000380 <EXTI9_5_IRQHandler+0xa0>)
 800035e:	695b      	ldr	r3, [r3, #20]
 8000360:	f403 7300 	and.w	r3, r3, #512	; 0x200
 8000364:	2b00      	cmp	r3, #0
 8000366:	d008      	beq.n	800037a <EXTI9_5_IRQHandler+0x9a>
 8000368:	4b05      	ldr	r3, [pc, #20]	; (8000380 <EXTI9_5_IRQHandler+0xa0>)
 800036a:	695b      	ldr	r3, [r3, #20]
 800036c:	4a04      	ldr	r2, [pc, #16]	; (8000380 <EXTI9_5_IRQHandler+0xa0>)
 800036e:	f443 7300 	orr.w	r3, r3, #512	; 0x200
 8000372:	6153      	str	r3, [r2, #20]
 8000374:	4b03      	ldr	r3, [pc, #12]	; (8000384 <EXTI9_5_IRQHandler+0xa4>)
 8000376:	6a5b      	ldr	r3, [r3, #36]	; 0x24
 8000378:	4798      	blx	r3
}
 800037a:	bf00      	nop
 800037c:	bd80      	pop	{r7, pc}
 800037e:	bf00      	nop
 8000380:	40010400 	.word	0x40010400
 8000384:	2000002c 	.word	0x2000002c

08000388 <EXTI15_10_IRQHandler>:

void EXTI15_10_IRQHandler(void){
 8000388:	b580      	push	{r7, lr}
 800038a:	af00      	add	r7, sp, #0
	if(EXTI->PR & (1<<10)){EXTI->PR |= (1<<10); GP_IRQ_CallBack[10](); }
 800038c:	4b2d      	ldr	r3, [pc, #180]	; (8000444 <EXTI15_10_IRQHandler+0xbc>)
 800038e:	695b      	ldr	r3, [r3, #20]
 8000390:	f403 6380 	and.w	r3, r3, #1024	; 0x400
 8000394:	2b00      	cmp	r3, #0
 8000396:	d008      	beq.n	80003aa <EXTI15_10_IRQHandler+0x22>
 8000398:	4b2a      	ldr	r3, [pc, #168]	; (8000444 <EXTI15_10_IRQHandler+0xbc>)
 800039a:	695b      	ldr	r3, [r3, #20]
 800039c:	4a29      	ldr	r2, [pc, #164]	; (8000444 <EXTI15_10_IRQHandler+0xbc>)
 800039e:	f443 6380 	orr.w	r3, r3, #1024	; 0x400
 80003a2:	6153      	str	r3, [r2, #20]
 80003a4:	4b28      	ldr	r3, [pc, #160]	; (8000448 <EXTI15_10_IRQHandler+0xc0>)
 80003a6:	6a9b      	ldr	r3, [r3, #40]	; 0x28
 80003a8:	4798      	blx	r3
	if(EXTI->PR & (1<<11)){EXTI->PR |= (1<<11); GP_IRQ_CallBack[11](); }
 80003aa:	4b26      	ldr	r3, [pc, #152]	; (8000444 <EXTI15_10_IRQHandler+0xbc>)
 80003ac:	695b      	ldr	r3, [r3, #20]
 80003ae:	f403 6300 	and.w	r3, r3, #2048	; 0x800
 80003b2:	2b00      	cmp	r3, #0
 80003b4:	d008      	beq.n	80003c8 <EXTI15_10_IRQHandler+0x40>
 80003b6:	4b23      	ldr	r3, [pc, #140]	; (8000444 <EXTI15_10_IRQHandler+0xbc>)
 80003b8:	695b      	ldr	r3, [r3, #20]
 80003ba:	4a22      	ldr	r2, [pc, #136]	; (8000444 <EXTI15_10_IRQHandler+0xbc>)
 80003bc:	f443 6300 	orr.w	r3, r3, #2048	; 0x800
 80003c0:	6153      	str	r3, [r2, #20]
 80003c2:	4b21      	ldr	r3, [pc, #132]	; (8000448 <EXTI15_10_IRQHandler+0xc0>)
 80003c4:	6adb      	ldr	r3, [r3, #44]	; 0x2c
 80003c6:	4798      	blx	r3
	if(EXTI->PR & (1<<12)){EXTI->PR |= (1<<12); GP_IRQ_CallBack[12](); }
 80003c8:	4b1e      	ldr	r3, [pc, #120]	; (8000444 <EXTI15_10_IRQHandler+0xbc>)
 80003ca:	695b      	ldr	r3, [r3, #20]
 80003cc:	f403 5380 	and.w	r3, r3, #4096	; 0x1000
 80003d0:	2b00      	cmp	r3, #0
 80003d2:	d008      	beq.n	80003e6 <EXTI15_10_IRQHandler+0x5e>
 80003d4:	4b1b      	ldr	r3, [pc, #108]	; (8000444 <EXTI15_10_IRQHandler+0xbc>)
 80003d6:	695b      	ldr	r3, [r3, #20]
 80003d8:	4a1a      	ldr	r2, [pc, #104]	; (8000444 <EXTI15_10_IRQHandler+0xbc>)
 80003da:	f443 5380 	orr.w	r3, r3, #4096	; 0x1000
 80003de:	6153      	str	r3, [r2, #20]
 80003e0:	4b19      	ldr	r3, [pc, #100]	; (8000448 <EXTI15_10_IRQHandler+0xc0>)
 80003e2:	6b1b      	ldr	r3, [r3, #48]	; 0x30
 80003e4:	4798      	blx	r3
	if(EXTI->PR & (1<<13)){EXTI->PR |= (1<<13); GP_IRQ_CallBack[13](); }
 80003e6:	4b17      	ldr	r3, [pc, #92]	; (8000444 <EXTI15_10_IRQHandler+0xbc>)
 80003e8:	695b      	ldr	r3, [r3, #20]
 80003ea:	f403 5300 	and.w	r3, r3, #8192	; 0x2000
 80003ee:	2b00      	cmp	r3, #0
 80003f0:	d008      	beq.n	8000404 <EXTI15_10_IRQHandler+0x7c>
 80003f2:	4b14      	ldr	r3, [pc, #80]	; (8000444 <EXTI15_10_IRQHandler+0xbc>)
 80003f4:	695b      	ldr	r3, [r3, #20]
 80003f6:	4a13      	ldr	r2, [pc, #76]	; (8000444 <EXTI15_10_IRQHandler+0xbc>)
 80003f8:	f443 5300 	orr.w	r3, r3, #8192	; 0x2000
 80003fc:	6153      	str	r3, [r2, #20]
 80003fe:	4b12      	ldr	r3, [pc, #72]	; (8000448 <EXTI15_10_IRQHandler+0xc0>)
 8000400:	6b5b      	ldr	r3, [r3, #52]	; 0x34
 8000402:	4798      	blx	r3
	if(EXTI->PR & (1<<14)){EXTI->PR |= (1<<14); GP_IRQ_CallBack[14](); }
 8000404:	4b0f      	ldr	r3, [pc, #60]	; (8000444 <EXTI15_10_IRQHandler+0xbc>)
 8000406:	695b      	ldr	r3, [r3, #20]
 8000408:	f403 4380 	and.w	r3, r3, #16384	; 0x4000
 800040c:	2b00      	cmp	r3, #0
 800040e:	d008      	beq.n	8000422 <EXTI15_10_IRQHandler+0x9a>
 8000410:	4b0c      	ldr	r3, [pc, #48]	; (8000444 <EXTI15_10_IRQHandler+0xbc>)
 8000412:	695b      	ldr	r3, [r3, #20]
 8000414:	4a0b      	ldr	r2, [pc, #44]	; (8000444 <EXTI15_10_IRQHandler+0xbc>)
 8000416:	f443 4380 	orr.w	r3, r3, #16384	; 0x4000
 800041a:	6153      	str	r3, [r2, #20]
 800041c:	4b0a      	ldr	r3, [pc, #40]	; (8000448 <EXTI15_10_IRQHandler+0xc0>)
 800041e:	6b9b      	ldr	r3, [r3, #56]	; 0x38
 8000420:	4798      	blx	r3
	if(EXTI->PR & (1<<15)){EXTI->PR |= (1<<15); GP_IRQ_CallBack[15](); }
 8000422:	4b08      	ldr	r3, [pc, #32]	; (8000444 <EXTI15_10_IRQHandler+0xbc>)
 8000424:	695b      	ldr	r3, [r3, #20]
 8000426:	f403 4300 	and.w	r3, r3, #32768	; 0x8000
 800042a:	2b00      	cmp	r3, #0
 800042c:	d008      	beq.n	8000440 <EXTI15_10_IRQHandler+0xb8>
 800042e:	4b05      	ldr	r3, [pc, #20]	; (8000444 <EXTI15_10_IRQHandler+0xbc>)
 8000430:	695b      	ldr	r3, [r3, #20]
 8000432:	4a04      	ldr	r2, [pc, #16]	; (8000444 <EXTI15_10_IRQHandler+0xbc>)
 8000434:	f443 4300 	orr.w	r3, r3, #32768	; 0x8000
 8000438:	6153      	str	r3, [r2, #20]
 800043a:	4b03      	ldr	r3, [pc, #12]	; (8000448 <EXTI15_10_IRQHandler+0xc0>)
 800043c:	6bdb      	ldr	r3, [r3, #60]	; 0x3c
 800043e:	4798      	blx	r3
}
 8000440:	bf00      	nop
 8000442:	bd80      	pop	{r7, pc}
 8000444:	40010400 	.word	0x40010400
 8000448:	2000002c 	.word	0x2000002c

0800044c <Get_CRL_CRH_PinPosition>:
 * @brief  Gets the bit position in CRL/CRH register for a given pin
 * @param  PinNumber: Pin number from GPIO_PINS_DEFINE
 * @retval Bit position (0, 4, 8, 12, 16, 20, 24, or 28)
 */
static uint8_t Get_CRL_CRH_PinPosition(uint16_t PinNumber)
{
 800044c:	b480      	push	{r7}
 800044e:	b083      	sub	sp, #12
 8000450:	af00      	add	r7, sp, #0
 8000452:	4603      	mov	r3, r0
 8000454:	80fb      	strh	r3, [r7, #6]
    switch(PinNumber)
 8000456:	88fb      	ldrh	r3, [r7, #6]
 8000458:	2b80      	cmp	r3, #128	; 0x80
 800045a:	d042      	beq.n	80004e2 <Get_CRL_CRH_PinPosition+0x96>
 800045c:	2b80      	cmp	r3, #128	; 0x80
 800045e:	dc11      	bgt.n	8000484 <Get_CRL_CRH_PinPosition+0x38>
 8000460:	2b08      	cmp	r3, #8
 8000462:	d036      	beq.n	80004d2 <Get_CRL_CRH_PinPosition+0x86>
 8000464:	2b08      	cmp	r3, #8
 8000466:	dc06      	bgt.n	8000476 <Get_CRL_CRH_PinPosition+0x2a>
 8000468:	2b02      	cmp	r3, #2
 800046a:	d02e      	beq.n	80004ca <Get_CRL_CRH_PinPosition+0x7e>
 800046c:	2b04      	cmp	r3, #4
 800046e:	d02e      	beq.n	80004ce <Get_CRL_CRH_PinPosition+0x82>
 8000470:	2b01      	cmp	r3, #1
 8000472:	d028      	beq.n	80004c6 <Get_CRL_CRH_PinPosition+0x7a>
 8000474:	e047      	b.n	8000506 <Get_CRL_CRH_PinPosition+0xba>
 8000476:	2b20      	cmp	r3, #32
 8000478:	d02f      	beq.n	80004da <Get_CRL_CRH_PinPosition+0x8e>
 800047a:	2b40      	cmp	r3, #64	; 0x40
 800047c:	d02f      	beq.n	80004de <Get_CRL_CRH_PinPosition+0x92>
 800047e:	2b10      	cmp	r3, #16
 8000480:	d029      	beq.n	80004d6 <Get_CRL_CRH_PinPosition+0x8a>
 8000482:	e040      	b.n	8000506 <Get_CRL_CRH_PinPosition+0xba>
 8000484:	f5b3 6f00 	cmp.w	r3, #2048	; 0x800
 8000488:	d033      	beq.n	80004f2 <Get_CRL_CRH_PinPosition+0xa6>
 800048a:	f5b3 6f00 	cmp.w	r3, #2048	; 0x800
 800048e:	dc09      	bgt.n	80004a4 <Get_CRL_CRH_PinPosition+0x58>
 8000490:	f5b3 7f00 	cmp.w	r3, #512	; 0x200
 8000494:	d029      	beq.n	80004ea <Get_CRL_CRH_PinPosition+0x9e>
 8000496:	f5b3 6f80 	cmp.w	r3, #1024	; 0x400
 800049a:	d028      	beq.n	80004ee <Get_CRL_CRH_PinPosition+0xa2>
 800049c:	f5b3 7f80 	cmp.w	r3, #256	; 0x100
 80004a0:	d021      	beq.n	80004e6 <Get_CRL_CRH_PinPosition+0x9a>
 80004a2:	e030      	b.n	8000506 <Get_CRL_CRH_PinPosition+0xba>
 80004a4:	f5b3 5f00 	cmp.w	r3, #8192	; 0x2000
 80004a8:	d027      	beq.n	80004fa <Get_CRL_CRH_PinPosition+0xae>
 80004aa:	f5b3 5f00 	cmp.w	r3, #8192	; 0x2000
 80004ae:	dc03      	bgt.n	80004b8 <Get_CRL_CRH_PinPosition+0x6c>
 80004b0:	f5b3 5f80 	cmp.w	r3, #4096	; 0x1000
 80004b4:	d01f      	beq.n	80004f6 <Get_CRL_CRH_PinPosition+0xaa>
 80004b6:	e026      	b.n	8000506 <Get_CRL_CRH_PinPosition+0xba>
 80004b8:	f5b3 4f80 	cmp.w	r3, #16384	; 0x4000
 80004bc:	d01f      	beq.n	80004fe <Get_CRL_CRH_PinPosition+0xb2>
 80004be:	f5b3 4f00 	cmp.w	r3, #32768	; 0x8000
 80004c2:	d01e      	beq.n	8000502 <Get_CRL_CRH_PinPosition+0xb6>
 80004c4:	e01f      	b.n	8000506 <Get_CRL_CRH_PinPosition+0xba>
    {
        case GPIO_PIN_0:  return 0;
 80004c6:	2300      	movs	r3, #0
 80004c8:	e01e      	b.n	8000508 <Get_CRL_CRH_PinPosition+0xbc>
        case GPIO_PIN_1:  return 4;
 80004ca:	2304      	movs	r3, #4
 80004cc:	e01c      	b.n	8000508 <Get_CRL_CRH_PinPosition+0xbc>
        case GPIO_PIN_2:  return 8;
 80004ce:	2308      	movs	r3, #8
 80004d0:	e01a      	b.n	8000508 <Get_CRL_CRH_PinPosition+0xbc>
        case GPIO_PIN_3:  return 12;
 80004d2:	230c      	movs	r3, #12
 80004d4:	e018      	b.n	8000508 <Get_CRL_CRH_PinPosition+0xbc>
        case GPIO_PIN_4:  return 16;
 80004d6:	2310      	movs	r3, #16
 80004d8:	e016      	b.n	8000508 <Get_CRL_CRH_PinPosition+0xbc>
        case GPIO_PIN_5:  return 20;
 80004da:	2314      	movs	r3, #20
 80004dc:	e014      	b.n	8000508 <Get_CRL_CRH_PinPosition+0xbc>
        case GPIO_PIN_6:  return 24;
 80004de:	2318      	movs	r3, #24
 80004e0:	e012      	b.n	8000508 <Get_CRL_CRH_PinPosition+0xbc>
        case GPIO_PIN_7:  return 28;
 80004e2:	231c      	movs	r3, #28
 80004e4:	e010      	b.n	8000508 <Get_CRL_CRH_PinPosition+0xbc>
        case GPIO_PIN_8:  return 0;
 80004e6:	2300      	movs	r3, #0
 80004e8:	e00e      	b.n	8000508 <Get_CRL_CRH_PinPosition+0xbc>
        case GPIO_PIN_9:  return 4;
 80004ea:	2304      	movs	r3, #4
 80004ec:	e00c      	b.n	8000508 <Get_CRL_CRH_PinPosition+0xbc>
        case GPIO_PIN_10: return 8;
 80004ee:	2308      	movs	r3, #8
 80004f0:	e00a      	b.n	8000508 <Get_CRL_CRH_PinPosition+0xbc>
        case GPIO_PIN_11: return 12;
 80004f2:	230c      	movs	r3, #12
 80004f4:	e008      	b.n	8000508 <Get_CRL_CRH_PinPosition+0xbc>
        case GPIO_PIN_12: return 16;
 80004f6:	2310      	movs	r3, #16
 80004f8:	e006      	b.n	8000508 <Get_CRL_CRH_PinPosition+0xbc>
        case GPIO_PIN_13: return 20;
 80004fa:	2314      	movs	r3, #20
 80004fc:	e004      	b.n	8000508 <Get_CRL_CRH_PinPosition+0xbc>
        case GPIO_PIN_14: return 24;
 80004fe:	2318      	movs	r3, #24
 8000500:	e002      	b.n	8000508 <Get_CRL_CRH_PinPosition+0xbc>
        case GPIO_PIN_15: return 28;
 8000502:	231c      	movs	r3, #28
 8000504:	e000      	b.n	8000508 <Get_CRL_CRH_PinPosition+0xbc>
        default:          return 0;
 8000506:	2300      	movs	r3, #0
    }
}
 8000508:	4618      	mov	r0, r3
 800050a:	370c      	adds	r7, #12
 800050c:	46bd      	mov	sp, r7
 800050e:	bc80      	pop	{r7}
 8000510:	4770      	bx	lr

08000512 <MCAL_GPIO_Init>:
 *
 * @note          - The GPIO peripheral clock must be enabled before calling this function
 *                - Configures: Pin number, Mode, Output speed, Pull-up/Pull-down
 */
void MCAL_GPIO_Init(GPIO_TypeDef *GPIOx, GPIO_PinConfig_t *PinConfig)
{
 8000512:	b580      	push	{r7, lr}
 8000514:	b084      	sub	sp, #16
 8000516:	af00      	add	r7, sp, #0
 8000518:	6078      	str	r0, [r7, #4]
 800051a:	6039      	str	r1, [r7, #0]
    // Input validation
    if (GPIOx == NULL || PinConfig == NULL)
 800051c:	687b      	ldr	r3, [r7, #4]
 800051e:	2b00      	cmp	r3, #0
 8000520:	d07e      	beq.n	8000620 <MCAL_GPIO_Init+0x10e>
 8000522:	683b      	ldr	r3, [r7, #0]
 8000524:	2b00      	cmp	r3, #0
 8000526:	d07b      	beq.n	8000620 <MCAL_GPIO_Init+0x10e>
        return;
    }

    // Port configuration register low (GPIOx_CRL): Pins 0-7
    // Port configuration register high (GPIOx_CRH): Pins 8-15
    volatile uint32_t *ConfigRegister = NULL;
 8000528:	2300      	movs	r3, #0
 800052a:	60fb      	str	r3, [r7, #12]
    uint8_t PinConfig_Value = 0;
 800052c:	2300      	movs	r3, #0
 800052e:	72fb      	strb	r3, [r7, #11]
    uint8_t PinPosition = 0;
 8000530:	2300      	movs	r3, #0
 8000532:	72bb      	strb	r3, [r7, #10]

    // Select CRL or CRH based on pin number
    uint8_t pin_index = 0;
 8000534:	2300      	movs	r3, #0
 8000536:	727b      	strb	r3, [r7, #9]

    if (PinConfig->GPIO_PinNumber & 0x00FF)
 8000538:	683b      	ldr	r3, [r7, #0]
 800053a:	881b      	ldrh	r3, [r3, #0]
 800053c:	b2db      	uxtb	r3, r3
 800053e:	2b00      	cmp	r3, #0
 8000540:	d002      	beq.n	8000548 <MCAL_GPIO_Init+0x36>
        ConfigRegister = &GPIOx->CRL;
 8000542:	687b      	ldr	r3, [r7, #4]
 8000544:	60fb      	str	r3, [r7, #12]
 8000546:	e002      	b.n	800054e <MCAL_GPIO_Init+0x3c>
    else
        ConfigRegister = &GPIOx->CRH;
 8000548:	687b      	ldr	r3, [r7, #4]
 800054a:	3304      	adds	r3, #4
 800054c:	60fb      	str	r3, [r7, #12]

    // Get bit position in the register
    PinPosition = Get_CRL_CRH_PinPosition(PinConfig->GPIO_PinNumber);
 800054e:	683b      	ldr	r3, [r7, #0]
 8000550:	881b      	ldrh	r3, [r3, #0]
 8000552:	4618      	mov	r0, r3
 8000554:	f7ff ff7a 	bl	800044c <Get_CRL_CRH_PinPosition>
 8000558:	4603      	mov	r3, r0
 800055a:	72bb      	strb	r3, [r7, #10]

    // Clear CNFx[1:0] MODEx[1:0] (4 bits per pin)
    (*ConfigRegister) &= ~(0xF << PinPosition);
 800055c:	68fb      	ldr	r3, [r7, #12]
 800055e:	681b      	ldr	r3, [r3, #0]
 8000560:	7aba      	ldrb	r2, [r7, #10]
 8000562:	210f      	movs	r1, #15
 8000564:	fa01 f202 	lsl.w	r2, r1, r2
 8000568:	43d2      	mvns	r2, r2
 800056a:	401a      	ands	r2, r3
 800056c:	68fb      	ldr	r3, [r7, #12]
 800056e:	601a      	str	r2, [r3, #0]

    // Configure OUTPUT modes
    if ((PinConfig->GPIO_Mode == GPIO_MODE_OUTPUT_PUSH_PULL) ||
 8000570:	683b      	ldr	r3, [r7, #0]
 8000572:	789b      	ldrb	r3, [r3, #2]
 8000574:	2b04      	cmp	r3, #4
 8000576:	d00b      	beq.n	8000590 <MCAL_GPIO_Init+0x7e>
        (PinConfig->GPIO_Mode == GPIO_MODE_OUTPUT_OPEN_DRAIN) ||
 8000578:	683b      	ldr	r3, [r7, #0]
 800057a:	789b      	ldrb	r3, [r3, #2]
    if ((PinConfig->GPIO_Mode == GPIO_MODE_OUTPUT_PUSH_PULL) ||
 800057c:	2b05      	cmp	r3, #5
 800057e:	d007      	beq.n	8000590 <MCAL_GPIO_Init+0x7e>
        (PinConfig->GPIO_Mode == GPIO_MODE_AL_OUTPUT_PUSH_PULL) ||
 8000580:	683b      	ldr	r3, [r7, #0]
 8000582:	789b      	ldrb	r3, [r3, #2]
        (PinConfig->GPIO_Mode == GPIO_MODE_OUTPUT_OPEN_DRAIN) ||
 8000584:	2b06      	cmp	r3, #6
 8000586:	d003      	beq.n	8000590 <MCAL_GPIO_Init+0x7e>
        (PinConfig->GPIO_Mode == GPIO_MODE_AL_OUTPUT_OPEN_DRAIN))
 8000588:	683b      	ldr	r3, [r7, #0]
 800058a:	789b      	ldrb	r3, [r3, #2]
        (PinConfig->GPIO_Mode == GPIO_MODE_AL_OUTPUT_PUSH_PULL) ||
 800058c:	2b07      	cmp	r3, #7
 800058e:	d10e      	bne.n	80005ae <MCAL_GPIO_Init+0x9c>
    {
        // For output modes (4-7), subtract 4 to get CNF bits (0-3)
        // Then shift left by 2 and OR with speed bits
        PinConfig_Value = ((((PinConfig->GPIO_Mode) - 4) << 2) | (PinConfig->GPIO_Output_Speed)) & 0x0F;
 8000590:	683b      	ldr	r3, [r7, #0]
 8000592:	789b      	ldrb	r3, [r3, #2]
 8000594:	3b04      	subs	r3, #4
 8000596:	009b      	lsls	r3, r3, #2
 8000598:	b25a      	sxtb	r2, r3
 800059a:	683b      	ldr	r3, [r7, #0]
 800059c:	78db      	ldrb	r3, [r3, #3]
 800059e:	b25b      	sxtb	r3, r3
 80005a0:	4313      	orrs	r3, r2
 80005a2:	b25b      	sxtb	r3, r3
 80005a4:	b2db      	uxtb	r3, r3
 80005a6:	f003 030f 	and.w	r3, r3, #15
 80005aa:	72fb      	strb	r3, [r7, #11]
 80005ac:	e02e      	b.n	800060c <MCAL_GPIO_Init+0xfa>
    }
    // Configure INPUT modes (MODE[1:0] = 00)
    else
    {
        if ((PinConfig->GPIO_Mode == GPIO_MODE_ANALOG_INPUT) ||
 80005ae:	683b      	ldr	r3, [r7, #0]
 80005b0:	789b      	ldrb	r3, [r3, #2]
 80005b2:	2b00      	cmp	r3, #0
 80005b4:	d003      	beq.n	80005be <MCAL_GPIO_Init+0xac>
            (PinConfig->GPIO_Mode == GPIO_MODE_FLOATING_INPUT))
 80005b6:	683b      	ldr	r3, [r7, #0]
 80005b8:	789b      	ldrb	r3, [r3, #2]
        if ((PinConfig->GPIO_Mode == GPIO_MODE_ANALOG_INPUT) ||
 80005ba:	2b01      	cmp	r3, #1
 80005bc:	d107      	bne.n	80005ce <MCAL_GPIO_Init+0xbc>
        {
            // Analog or Floating input: CNF = mode, MODE = 00
            PinConfig_Value = ((PinConfig->GPIO_Mode << 2) | 0x0) & 0x0F;
 80005be:	683b      	ldr	r3, [r7, #0]
 80005c0:	789b      	ldrb	r3, [r3, #2]
 80005c2:	009b      	lsls	r3, r3, #2
 80005c4:	b2db      	uxtb	r3, r3
 80005c6:	f003 030f 	and.w	r3, r3, #15
 80005ca:	72fb      	strb	r3, [r7, #11]
 80005cc:	e01e      	b.n	800060c <MCAL_GPIO_Init+0xfa>
        }
        else if (PinConfig->GPIO_Mode == GPIO_MODE_AL_INPUT)
 80005ce:	683b      	ldr	r3, [r7, #0]
 80005d0:	789b      	ldrb	r3, [r3, #2]
 80005d2:	2b08      	cmp	r3, #8
 80005d4:	d102      	bne.n	80005dc <MCAL_GPIO_Init+0xca>
        {
            // Alternate function input: configured as floating input
            PinConfig_Value = ((GPIO_MODE_FLOATING_INPUT << 2) | 0x0) & 0x0F;
 80005d6:	2304      	movs	r3, #4
 80005d8:	72fb      	strb	r3, [r7, #11]
 80005da:	e017      	b.n	800060c <MCAL_GPIO_Init+0xfa>
        }
        else if (PinConfig->GPIO_Mode == GPIO_MODE_INPUT_PU)
 80005dc:	683b      	ldr	r3, [r7, #0]
 80005de:	789b      	ldrb	r3, [r3, #2]
 80005e0:	2b02      	cmp	r3, #2
 80005e2:	d109      	bne.n	80005f8 <MCAL_GPIO_Init+0xe6>
        {
            // Input pull-up: CNF = 10, MODE = 00, ODR = 1
            PinConfig_Value = ((GPIO_MODE_INPUT_PU << 2) | 0x0) & 0x0F;
 80005e4:	2308      	movs	r3, #8
 80005e6:	72fb      	strb	r3, [r7, #11]
            GPIOx->ODR |= PinConfig->GPIO_PinNumber;
 80005e8:	687b      	ldr	r3, [r7, #4]
 80005ea:	68db      	ldr	r3, [r3, #12]
 80005ec:	683a      	ldr	r2, [r7, #0]
 80005ee:	8812      	ldrh	r2, [r2, #0]
 80005f0:	431a      	orrs	r2, r3
 80005f2:	687b      	ldr	r3, [r7, #4]
 80005f4:	60da      	str	r2, [r3, #12]
 80005f6:	e009      	b.n	800060c <MCAL_GPIO_Init+0xfa>
        }
        else // GPIO_MODE_INPUT_PD
        {
            // Input pull-down: CNF = 10, MODE = 00, ODR = 0
            PinConfig_Value = ((GPIO_MODE_INPUT_PD << 2) | 0x0) & 0x0F;
 80005f8:	230c      	movs	r3, #12
 80005fa:	72fb      	strb	r3, [r7, #11]
            GPIOx->ODR &= ~(PinConfig->GPIO_PinNumber);
 80005fc:	687b      	ldr	r3, [r7, #4]
 80005fe:	68db      	ldr	r3, [r3, #12]
 8000600:	683a      	ldr	r2, [r7, #0]
 8000602:	8812      	ldrh	r2, [r2, #0]
 8000604:	43d2      	mvns	r2, r2
 8000606:	401a      	ands	r2, r3
 8000608:	687b      	ldr	r3, [r7, #4]
 800060a:	60da      	str	r2, [r3, #12]
        }
    }

    // Write configuration to register
    (*ConfigRegister) |= (PinConfig_Value << PinPosition);
 800060c:	68fb      	ldr	r3, [r7, #12]
 800060e:	681b      	ldr	r3, [r3, #0]
 8000610:	7af9      	ldrb	r1, [r7, #11]
 8000612:	7aba      	ldrb	r2, [r7, #10]
 8000614:	fa01 f202 	lsl.w	r2, r1, r2
 8000618:	431a      	orrs	r2, r3
 800061a:	68fb      	ldr	r3, [r7, #12]
 800061c:	601a      	str	r2, [r3, #0]
 800061e:	e000      	b.n	8000622 <MCAL_GPIO_Init+0x110>
        return;
 8000620:	bf00      	nop
}
 8000622:	3710      	adds	r7, #16
 8000624:	46bd      	mov	sp, r7
 8000626:	bd80      	pop	{r7, pc}

08000628 <MCAL_RCC_GetSYSCLK_Freq>:
	1101: SYSCLK divided by 128
	1110: SYSCLK divided by 256
	1111: SYSCLK divided by 512*/
const uint32_t AHBPrescalerTable[16U] = {0,0,0,0,0,0,0,0,1,2,3,4,6,7,8,9};

uint32_t MCAL_RCC_GetSYSCLK_Freq(void){
 8000628:	b480      	push	{r7}
 800062a:	af00      	add	r7, sp, #0
Set and cleared by hardware to indicate which clock source is used as system clock.
00: HSI oscillator used as system clock
01: HSE oscillator used as system clock
10: PLL used as system clock
11: not applicable*/
	switch((RCC->CFGR>>2)&0b11){
 800062c:	4b0a      	ldr	r3, [pc, #40]	; (8000658 <MCAL_RCC_GetSYSCLK_Freq+0x30>)
 800062e:	685b      	ldr	r3, [r3, #4]
 8000630:	089b      	lsrs	r3, r3, #2
 8000632:	f003 0303 	and.w	r3, r3, #3
 8000636:	2b01      	cmp	r3, #1
 8000638:	d006      	beq.n	8000648 <MCAL_RCC_GetSYSCLK_Freq+0x20>
 800063a:	2b01      	cmp	r3, #1
 800063c:	d302      	bcc.n	8000644 <MCAL_RCC_GetSYSCLK_Freq+0x1c>
 800063e:	2b02      	cmp	r3, #2
 8000640:	d004      	beq.n	800064c <MCAL_RCC_GetSYSCLK_Freq+0x24>
 8000642:	e005      	b.n	8000650 <MCAL_RCC_GetSYSCLK_Freq+0x28>
		case 0 :
			return HSI_RC_CLK;
 8000644:	4b05      	ldr	r3, [pc, #20]	; (800065c <MCAL_RCC_GetSYSCLK_Freq+0x34>)
 8000646:	e003      	b.n	8000650 <MCAL_RCC_GetSYSCLK_Freq+0x28>
			break;
		case 1 :
			return HSE_CLK;
 8000648:	4b05      	ldr	r3, [pc, #20]	; (8000660 <MCAL_RCC_GetSYSCLK_Freq+0x38>)
 800064a:	e001      	b.n	8000650 <MCAL_RCC_GetSYSCLK_Freq+0x28>
			break;
		case 2 :
			return 16000000;
 800064c:	4b04      	ldr	r3, [pc, #16]	; (8000660 <MCAL_RCC_GetSYSCLK_Freq+0x38>)
 800064e:	e7ff      	b.n	8000650 <MCAL_RCC_GetSYSCLK_Freq+0x28>
			break;
	}
}
 8000650:	4618      	mov	r0, r3
 8000652:	46bd      	mov	sp, r7
 8000654:	bc80      	pop	{r7}
 8000656:	4770      	bx	lr
 8000658:	40021000 	.word	0x40021000
 800065c:	007a1200 	.word	0x007a1200
 8000660:	00f42400 	.word	0x00f42400

08000664 <MCAL_RCC_GetHCLK_Freq>:

uint32_t MCAL_RCC_GetHCLK_Freq(void){
 8000664:	b580      	push	{r7, lr}
 8000666:	af00      	add	r7, sp, #0
1011: SYSCLK divided by 16
1100: SYSCLK divided by 64
1101: SYSCLK divided by 128
1110: SYSCLK divided by 256
1111: SYSCLK divided by 512*/
	return (MCAL_RCC_GetSYSCLK_Freq()>>AHBPrescalerTable[(RCC->CFGR>>4)&0xF]);
 8000668:	f7ff ffde 	bl	8000628 <MCAL_RCC_GetSYSCLK_Freq>
 800066c:	4601      	mov	r1, r0
 800066e:	4b06      	ldr	r3, [pc, #24]	; (8000688 <MCAL_RCC_GetHCLK_Freq+0x24>)
 8000670:	685b      	ldr	r3, [r3, #4]
 8000672:	091b      	lsrs	r3, r3, #4
 8000674:	f003 030f 	and.w	r3, r3, #15
 8000678:	4a04      	ldr	r2, [pc, #16]	; (800068c <MCAL_RCC_GetHCLK_Freq+0x28>)
 800067a:	f852 3023 	ldr.w	r3, [r2, r3, lsl #2]
 800067e:	fa21 f303 	lsr.w	r3, r1, r3

}
 8000682:	4618      	mov	r0, r3
 8000684:	bd80      	pop	{r7, pc}
 8000686:	bf00      	nop
 8000688:	40021000 	.word	0x40021000
 800068c:	08000c0c 	.word	0x08000c0c

08000690 <MCAL_RCC_GetPCLK1_Freq>:

uint32_t MCAL_RCC_GetPCLK1_Freq(void){
 8000690:	b580      	push	{r7, lr}
 8000692:	af00      	add	r7, sp, #0
	100: HCLK divided by 2
	101: HCLK divided by 4
	110: HCLK divided by 8
	111: HCLK divided by 16*/

	return (MCAL_RCC_GetHCLK_Freq()>>APBPrescalerTable[(RCC->CFGR>>8)&0b111]);
 8000694:	f7ff ffe6 	bl	8000664 <MCAL_RCC_GetHCLK_Freq>
 8000698:	4601      	mov	r1, r0
 800069a:	4b06      	ldr	r3, [pc, #24]	; (80006b4 <MCAL_RCC_GetPCLK1_Freq+0x24>)
 800069c:	685b      	ldr	r3, [r3, #4]
 800069e:	0a1b      	lsrs	r3, r3, #8
 80006a0:	f003 0307 	and.w	r3, r3, #7
 80006a4:	4a04      	ldr	r2, [pc, #16]	; (80006b8 <MCAL_RCC_GetPCLK1_Freq+0x28>)
 80006a6:	f852 3023 	ldr.w	r3, [r2, r3, lsl #2]
 80006aa:	fa21 f303 	lsr.w	r3, r1, r3
}
 80006ae:	4618      	mov	r0, r3
 80006b0:	bd80      	pop	{r7, pc}
 80006b2:	bf00      	nop
 80006b4:	40021000 	.word	0x40021000
 80006b8:	08000bec 	.word	0x08000bec

080006bc <MCAL_RCC_GetPCLK2_Freq>:

uint32_t MCAL_RCC_GetPCLK2_Freq(void){
 80006bc:	b580      	push	{r7, lr}
 80006be:	af00      	add	r7, sp, #0
	0xx: HCLK not divided
	100: HCLK divided by 2
	101: HCLK divided by 4
	110: HCLK divided by 8
	111: HCLK divided by 16*/
	return (MCAL_RCC_GetHCLK_Freq()>>APBPrescalerTable[(RCC->CFGR>>11)&0b111]);
 80006c0:	f7ff ffd0 	bl	8000664 <MCAL_RCC_GetHCLK_Freq>
 80006c4:	4601      	mov	r1, r0
 80006c6:	4b06      	ldr	r3, [pc, #24]	; (80006e0 <MCAL_RCC_GetPCLK2_Freq+0x24>)
 80006c8:	685b      	ldr	r3, [r3, #4]
 80006ca:	0adb      	lsrs	r3, r3, #11
 80006cc:	f003 0307 	and.w	r3, r3, #7
 80006d0:	4a04      	ldr	r2, [pc, #16]	; (80006e4 <MCAL_RCC_GetPCLK2_Freq+0x28>)
 80006d2:	f852 3023 	ldr.w	r3, [r2, r3, lsl #2]
 80006d6:	fa21 f303 	lsr.w	r3, r1, r3
}
 80006da:	4618      	mov	r0, r3
 80006dc:	bd80      	pop	{r7, pc}
 80006de:	bf00      	nop
 80006e0:	40021000 	.word	0x40021000
 80006e4:	08000bec 	.word	0x08000bec

080006e8 <USART_GetIndex>:
/* Keep a separate config pointer for each USART peripheral */
static USART_Config *g_USART_Config[3] = {0};

/* Map USART base address to index (0..2) */
static uint8_t USART_GetIndex(USART_TypeDef *USARTx)
{
 80006e8:	b480      	push	{r7}
 80006ea:	b083      	sub	sp, #12
 80006ec:	af00      	add	r7, sp, #0
 80006ee:	6078      	str	r0, [r7, #4]
	if (USARTx == USART1) return 0;
 80006f0:	687b      	ldr	r3, [r7, #4]
 80006f2:	4a08      	ldr	r2, [pc, #32]	; (8000714 <USART_GetIndex+0x2c>)
 80006f4:	4293      	cmp	r3, r2
 80006f6:	d101      	bne.n	80006fc <USART_GetIndex+0x14>
 80006f8:	2300      	movs	r3, #0
 80006fa:	e006      	b.n	800070a <USART_GetIndex+0x22>
	if (USARTx == USART2) return 1;
 80006fc:	687b      	ldr	r3, [r7, #4]
 80006fe:	4a06      	ldr	r2, [pc, #24]	; (8000718 <USART_GetIndex+0x30>)
 8000700:	4293      	cmp	r3, r2
 8000702:	d101      	bne.n	8000708 <USART_GetIndex+0x20>
 8000704:	2301      	movs	r3, #1
 8000706:	e000      	b.n	800070a <USART_GetIndex+0x22>
	return 2; // USART3
 8000708:	2302      	movs	r3, #2
}
 800070a:	4618      	mov	r0, r3
 800070c:	370c      	adds	r7, #12
 800070e:	46bd      	mov	sp, r7
 8000710:	bc80      	pop	{r7}
 8000712:	4770      	bx	lr
 8000714:	40013800 	.word	0x40013800
 8000718:	40004400 	.word	0x40004400

0800071c <MCAL_USART_GPIO_SetPins>:

/* ============================================================
 *                 Helper: GPIO pin configuration
 * ============================================================ */
void MCAL_USART_GPIO_SetPins(USART_TypeDef *USARTx)
{
 800071c:	b580      	push	{r7, lr}
 800071e:	b086      	sub	sp, #24
 8000720:	af00      	add	r7, sp, #0
 8000722:	6078      	str	r0, [r7, #4]
	GPIO_PinConfig_t PinCfg;
	uint8_t idx = USART_GetIndex(USARTx);
 8000724:	6878      	ldr	r0, [r7, #4]
 8000726:	f7ff ffdf 	bl	80006e8 <USART_GetIndex>
 800072a:	4603      	mov	r3, r0
 800072c:	75fb      	strb	r3, [r7, #23]
	USART_Config *cfg = g_USART_Config[idx];
 800072e:	7dfb      	ldrb	r3, [r7, #23]
 8000730:	4a2d      	ldr	r2, [pc, #180]	; (80007e8 <MCAL_USART_GPIO_SetPins+0xcc>)
 8000732:	f852 3023 	ldr.w	r3, [r2, r3, lsl #2]
 8000736:	613b      	str	r3, [r7, #16]

	/* If init not called yet, cfg may be NULL */
	if (!cfg) return;
 8000738:	693b      	ldr	r3, [r7, #16]
 800073a:	2b00      	cmp	r3, #0
 800073c:	d050      	beq.n	80007e0 <MCAL_USART_GPIO_SetPins+0xc4>
	 * TX  -> PA9  (AF Push-Pull)
	 * RX  -> PA10 (Input Pull-up)
	 * CTS -> PA11 (Input Pull-up)  optional
	 * RTS -> PA12 (AF Push-Pull)   optional
	 */
	if (USARTx == USART1)
 800073e:	687b      	ldr	r3, [r7, #4]
 8000740:	4a2a      	ldr	r2, [pc, #168]	; (80007ec <MCAL_USART_GPIO_SetPins+0xd0>)
 8000742:	4293      	cmp	r3, r2
 8000744:	d118      	bne.n	8000778 <MCAL_USART_GPIO_SetPins+0x5c>
	{
		// TX: PA9
		PinCfg.GPIO_PinNumber = GPIO_PIN_9;
 8000746:	f44f 7300 	mov.w	r3, #512	; 0x200
 800074a:	81bb      	strh	r3, [r7, #12]
		PinCfg.GPIO_Mode = GPIO_MODE_AL_OUTPUT_PUSH_PULL;
 800074c:	2306      	movs	r3, #6
 800074e:	73bb      	strb	r3, [r7, #14]
		PinCfg.GPIO_Output_Speed = GPIO_OUTPUT_SPEED_10MHz;
 8000750:	2301      	movs	r3, #1
 8000752:	73fb      	strb	r3, [r7, #15]
		MCAL_GPIO_Init(GPIOA, &PinCfg);
 8000754:	f107 030c 	add.w	r3, r7, #12
 8000758:	4619      	mov	r1, r3
 800075a:	4825      	ldr	r0, [pc, #148]	; (80007f0 <MCAL_USART_GPIO_SetPins+0xd4>)
 800075c:	f7ff fed9 	bl	8000512 <MCAL_GPIO_Init>

		// RX: PA10
		PinCfg.GPIO_PinNumber = GPIO_PIN_10;
 8000760:	f44f 6380 	mov.w	r3, #1024	; 0x400
 8000764:	81bb      	strh	r3, [r7, #12]
		PinCfg.GPIO_Mode = GPIO_MODE_INPUT_PU;
 8000766:	2302      	movs	r3, #2
 8000768:	73bb      	strb	r3, [r7, #14]
		MCAL_GPIO_Init(GPIOA, &PinCfg);
 800076a:	f107 030c 	add.w	r3, r7, #12
 800076e:	4619      	mov	r1, r3
 8000770:	481f      	ldr	r0, [pc, #124]	; (80007f0 <MCAL_USART_GPIO_SetPins+0xd4>)
 8000772:	f7ff fece 	bl	8000512 <MCAL_GPIO_Init>
 8000776:	e034      	b.n	80007e2 <MCAL_USART_GPIO_SetPins+0xc6>
	 * TX  -> PA2
	 * RX  -> PA3
	 * CTS -> PA0  optional
	 * RTS -> PA1  optional
	 */
	else if (USARTx == USART2)
 8000778:	687b      	ldr	r3, [r7, #4]
 800077a:	4a1e      	ldr	r2, [pc, #120]	; (80007f4 <MCAL_USART_GPIO_SetPins+0xd8>)
 800077c:	4293      	cmp	r3, r2
 800077e:	d116      	bne.n	80007ae <MCAL_USART_GPIO_SetPins+0x92>
	{
		// TX: PA2
		PinCfg.GPIO_PinNumber = GPIO_PIN_2;
 8000780:	2304      	movs	r3, #4
 8000782:	81bb      	strh	r3, [r7, #12]
		PinCfg.GPIO_Mode = GPIO_MODE_AL_OUTPUT_PUSH_PULL;
 8000784:	2306      	movs	r3, #6
 8000786:	73bb      	strb	r3, [r7, #14]
		PinCfg.GPIO_Output_Speed = GPIO_OUTPUT_SPEED_10MHz;
 8000788:	2301      	movs	r3, #1
 800078a:	73fb      	strb	r3, [r7, #15]
		MCAL_GPIO_Init(GPIOA, &PinCfg);
 800078c:	f107 030c 	add.w	r3, r7, #12
 8000790:	4619      	mov	r1, r3
 8000792:	4817      	ldr	r0, [pc, #92]	; (80007f0 <MCAL_USART_GPIO_SetPins+0xd4>)
 8000794:	f7ff febd 	bl	8000512 <MCAL_GPIO_Init>

		// RX: PA3
		PinCfg.GPIO_PinNumber = GPIO_PIN_3;
 8000798:	2308      	movs	r3, #8
 800079a:	81bb      	strh	r3, [r7, #12]
		PinCfg.GPIO_Mode = GPIO_MODE_INPUT_PU;
 800079c:	2302      	movs	r3, #2
 800079e:	73bb      	strb	r3, [r7, #14]
		MCAL_GPIO_Init(GPIOA, &PinCfg);
 80007a0:	f107 030c 	add.w	r3, r7, #12
 80007a4:	4619      	mov	r1, r3
 80007a6:	4812      	ldr	r0, [pc, #72]	; (80007f0 <MCAL_USART_GPIO_SetPins+0xd4>)
 80007a8:	f7ff feb3 	bl	8000512 <MCAL_GPIO_Init>
 80007ac:	e019      	b.n	80007e2 <MCAL_USART_GPIO_SetPins+0xc6>
	 * RTS -> PB14 optional
	 */
	else /* USART3 */
	{
		// TX: PB10
		PinCfg.GPIO_PinNumber = GPIO_PIN_10;
 80007ae:	f44f 6380 	mov.w	r3, #1024	; 0x400
 80007b2:	81bb      	strh	r3, [r7, #12]
		PinCfg.GPIO_Mode = GPIO_MODE_AL_OUTPUT_PUSH_PULL;
 80007b4:	2306      	movs	r3, #6
 80007b6:	73bb      	strb	r3, [r7, #14]
		PinCfg.GPIO_Output_Speed = GPIO_OUTPUT_SPEED_10MHz;
 80007b8:	2301      	movs	r3, #1
 80007ba:	73fb      	strb	r3, [r7, #15]
		MCAL_GPIO_Init(GPIOB, &PinCfg);
 80007bc:	f107 030c 	add.w	r3, r7, #12
 80007c0:	4619      	mov	r1, r3
 80007c2:	480d      	ldr	r0, [pc, #52]	; (80007f8 <MCAL_USART_GPIO_SetPins+0xdc>)
 80007c4:	f7ff fea5 	bl	8000512 <MCAL_GPIO_Init>

		// RX: PB11
		PinCfg.GPIO_PinNumber = GPIO_PIN_11;
 80007c8:	f44f 6300 	mov.w	r3, #2048	; 0x800
 80007cc:	81bb      	strh	r3, [r7, #12]
		PinCfg.GPIO_Mode = GPIO_MODE_INPUT_PU;
 80007ce:	2302      	movs	r3, #2
 80007d0:	73bb      	strb	r3, [r7, #14]
		MCAL_GPIO_Init(GPIOB, &PinCfg);
 80007d2:	f107 030c 	add.w	r3, r7, #12
 80007d6:	4619      	mov	r1, r3
 80007d8:	4807      	ldr	r0, [pc, #28]	; (80007f8 <MCAL_USART_GPIO_SetPins+0xdc>)
 80007da:	f7ff fe9a 	bl	8000512 <MCAL_GPIO_Init>
 80007de:	e000      	b.n	80007e2 <MCAL_USART_GPIO_SetPins+0xc6>
	if (!cfg) return;
 80007e0:	bf00      	nop
			PinCfg.GPIO_PinNumber = GPIO_PIN_14;
			PinCfg.GPIO_Mode = GPIO_MODE_AL_OUTPUT_PUSH_PULL;
			MCAL_GPIO_Init(GPIOB, &PinCfg);
		}
	}
}
 80007e2:	3718      	adds	r7, #24
 80007e4:	46bd      	mov	sp, r7
 80007e6:	bd80      	pop	{r7, pc}
 80007e8:	2000001c 	.word	0x2000001c
 80007ec:	40013800 	.word	0x40013800
 80007f0:	40010800 	.word	0x40010800
 80007f4:	40004400 	.word	0x40004400
 80007f8:	40010c00 	.word	0x40010c00

080007fc <MCAL_USART_Init>:

/* ============================================================
 *                 Init / DeInit
 * ============================================================ */
void MCAL_USART_Init(USART_TypeDef *USARTx, USART_Config *USARTx_Config)
{
 80007fc:	b580      	push	{r7, lr}
 80007fe:	b086      	sub	sp, #24
 8000800:	af00      	add	r7, sp, #0
 8000802:	6078      	str	r0, [r7, #4]
 8000804:	6039      	str	r1, [r7, #0]
	uint32_t Pclk = 0;
 8000806:	2300      	movs	r3, #0
 8000808:	617b      	str	r3, [r7, #20]
	uint32_t BRR  = 0;
 800080a:	2300      	movs	r3, #0
 800080c:	613b      	str	r3, [r7, #16]

	/* Save config pointer (per USART instance) */
	uint8_t idx = USART_GetIndex(USARTx);
 800080e:	6878      	ldr	r0, [r7, #4]
 8000810:	f7ff ff6a 	bl	80006e8 <USART_GetIndex>
 8000814:	4603      	mov	r3, r0
 8000816:	73fb      	strb	r3, [r7, #15]
	g_USART_Config[idx] = USARTx_Config;
 8000818:	7bfb      	ldrb	r3, [r7, #15]
 800081a:	4962      	ldr	r1, [pc, #392]	; (80009a4 <MCAL_USART_Init+0x1a8>)
 800081c:	683a      	ldr	r2, [r7, #0]
 800081e:	f841 2023 	str.w	r2, [r1, r3, lsl #2]

	/* 1) Enable peripheral clock */
	if (USARTx == USART1)      { RCC_USART1_CLK_EN(); }
 8000822:	687b      	ldr	r3, [r7, #4]
 8000824:	4a60      	ldr	r2, [pc, #384]	; (80009a8 <MCAL_USART_Init+0x1ac>)
 8000826:	4293      	cmp	r3, r2
 8000828:	d106      	bne.n	8000838 <MCAL_USART_Init+0x3c>
 800082a:	4b60      	ldr	r3, [pc, #384]	; (80009ac <MCAL_USART_Init+0x1b0>)
 800082c:	699b      	ldr	r3, [r3, #24]
 800082e:	4a5f      	ldr	r2, [pc, #380]	; (80009ac <MCAL_USART_Init+0x1b0>)
 8000830:	f443 4380 	orr.w	r3, r3, #16384	; 0x4000
 8000834:	6193      	str	r3, [r2, #24]
 8000836:	e010      	b.n	800085a <MCAL_USART_Init+0x5e>
	else if (USARTx == USART2) { RCC_USART2_CLK_EN(); }
 8000838:	687b      	ldr	r3, [r7, #4]
 800083a:	4a5d      	ldr	r2, [pc, #372]	; (80009b0 <MCAL_USART_Init+0x1b4>)
 800083c:	4293      	cmp	r3, r2
 800083e:	d106      	bne.n	800084e <MCAL_USART_Init+0x52>
 8000840:	4b5a      	ldr	r3, [pc, #360]	; (80009ac <MCAL_USART_Init+0x1b0>)
 8000842:	69db      	ldr	r3, [r3, #28]
 8000844:	4a59      	ldr	r2, [pc, #356]	; (80009ac <MCAL_USART_Init+0x1b0>)
 8000846:	f443 3300 	orr.w	r3, r3, #131072	; 0x20000
 800084a:	61d3      	str	r3, [r2, #28]
 800084c:	e005      	b.n	800085a <MCAL_USART_Init+0x5e>
	else                       { RCC_USART3_CLK_EN(); }
 800084e:	4b57      	ldr	r3, [pc, #348]	; (80009ac <MCAL_USART_Init+0x1b0>)
 8000850:	69db      	ldr	r3, [r3, #28]
 8000852:	4a56      	ldr	r2, [pc, #344]	; (80009ac <MCAL_USART_Init+0x1b0>)
 8000854:	f443 2380 	orr.w	r3, r3, #262144	; 0x40000
 8000858:	61d3      	str	r3, [r2, #28]

	/* 2) Make sure GPIO clocks are enabled (USART pins are on GPIOA/GPIOB) */
	/*    You can keep these always enabled, or enable conditionally. */
	RCC_GPIOA_CLK_EN();
 800085a:	4b54      	ldr	r3, [pc, #336]	; (80009ac <MCAL_USART_Init+0x1b0>)
 800085c:	699b      	ldr	r3, [r3, #24]
 800085e:	4a53      	ldr	r2, [pc, #332]	; (80009ac <MCAL_USART_Init+0x1b0>)
 8000860:	f043 0304 	orr.w	r3, r3, #4
 8000864:	6193      	str	r3, [r2, #24]
	RCC_GPIOB_CLK_EN();
 8000866:	4b51      	ldr	r3, [pc, #324]	; (80009ac <MCAL_USART_Init+0x1b0>)
 8000868:	699b      	ldr	r3, [r3, #24]
 800086a:	4a50      	ldr	r2, [pc, #320]	; (80009ac <MCAL_USART_Init+0x1b0>)
 800086c:	f043 0308 	orr.w	r3, r3, #8
 8000870:	6193      	str	r3, [r2, #24]
	RCC_AFIO_CLK_EN(); /* only needed if you later support remap */
 8000872:	4b4e      	ldr	r3, [pc, #312]	; (80009ac <MCAL_USART_Init+0x1b0>)
 8000874:	699b      	ldr	r3, [r3, #24]
 8000876:	4a4d      	ldr	r2, [pc, #308]	; (80009ac <MCAL_USART_Init+0x1b0>)
 8000878:	f043 0301 	orr.w	r3, r3, #1
 800087c:	6193      	str	r3, [r2, #24]

	/* 3) Configure GPIO pins for selected USART + Flow Control */
	MCAL_USART_GPIO_SetPins(USARTx);
 800087e:	6878      	ldr	r0, [r7, #4]
 8000880:	f7ff ff4c 	bl	800071c <MCAL_USART_GPIO_SetPins>

	/* 4) USART enable (UE bit) */
	USARTx->USART_CR1 |= (1U << 13);
 8000884:	687b      	ldr	r3, [r7, #4]
 8000886:	68db      	ldr	r3, [r3, #12]
 8000888:	f443 5200 	orr.w	r2, r3, #8192	; 0x2000
 800088c:	687b      	ldr	r3, [r7, #4]
 800088e:	60da      	str	r2, [r3, #12]

	/* 5) Configure mode (TE/RE), word length, parity */
	USARTx->USART_CR1 |= USARTx_Config->USART_Mode;
 8000890:	687b      	ldr	r3, [r7, #4]
 8000892:	68db      	ldr	r3, [r3, #12]
 8000894:	683a      	ldr	r2, [r7, #0]
 8000896:	7812      	ldrb	r2, [r2, #0]
 8000898:	431a      	orrs	r2, r3
 800089a:	687b      	ldr	r3, [r7, #4]
 800089c:	60da      	str	r2, [r3, #12]
	USARTx->USART_CR1 |= USARTx_Config->PayLoad_Length;
 800089e:	687b      	ldr	r3, [r7, #4]
 80008a0:	68db      	ldr	r3, [r3, #12]
 80008a2:	683a      	ldr	r2, [r7, #0]
 80008a4:	7a12      	ldrb	r2, [r2, #8]
 80008a6:	431a      	orrs	r2, r3
 80008a8:	687b      	ldr	r3, [r7, #4]
 80008aa:	60da      	str	r2, [r3, #12]
	USARTx->USART_CR1 |= USARTx_Config->Parity;
 80008ac:	687b      	ldr	r3, [r7, #4]
 80008ae:	68db      	ldr	r3, [r3, #12]
 80008b0:	683a      	ldr	r2, [r7, #0]
 80008b2:	7a52      	ldrb	r2, [r2, #9]
 80008b4:	431a      	orrs	r2, r3
 80008b6:	687b      	ldr	r3, [r7, #4]
 80008b8:	60da      	str	r2, [r3, #12]

	/* 6) Stop bits */
	USARTx->USART_CR2 |= USARTx_Config->StopBits;
 80008ba:	687b      	ldr	r3, [r7, #4]
 80008bc:	691b      	ldr	r3, [r3, #16]
 80008be:	683a      	ldr	r2, [r7, #0]
 80008c0:	7a92      	ldrb	r2, [r2, #10]
 80008c2:	431a      	orrs	r2, r3
 80008c4:	687b      	ldr	r3, [r7, #4]
 80008c6:	611a      	str	r2, [r3, #16]

	/* 7) Hardware flow control (CTS/RTS) */
	USARTx->USART_CR3 |= USARTx_Config->HwFlowControl;
 80008c8:	687b      	ldr	r3, [r7, #4]
 80008ca:	695b      	ldr	r3, [r3, #20]
 80008cc:	683a      	ldr	r2, [r7, #0]
 80008ce:	7ad2      	ldrb	r2, [r2, #11]
 80008d0:	431a      	orrs	r2, r3
 80008d2:	687b      	ldr	r3, [r7, #4]
 80008d4:	615a      	str	r2, [r3, #20]

	/* 8) Select PCLK source:
	 *    USART1 on APB2 (PCLK2)
	 *    USART2/3 on APB1 (PCLK1)
	 */
	if (USARTx == USART1) { Pclk = MCAL_RCC_GetPCLK2_Freq(); }
 80008d6:	687b      	ldr	r3, [r7, #4]
 80008d8:	4a33      	ldr	r2, [pc, #204]	; (80009a8 <MCAL_USART_Init+0x1ac>)
 80008da:	4293      	cmp	r3, r2
 80008dc:	d103      	bne.n	80008e6 <MCAL_USART_Init+0xea>
 80008de:	f7ff feed 	bl	80006bc <MCAL_RCC_GetPCLK2_Freq>
 80008e2:	6178      	str	r0, [r7, #20]
 80008e4:	e002      	b.n	80008ec <MCAL_USART_Init+0xf0>
	else                  { Pclk = MCAL_RCC_GetPCLK1_Freq(); }
 80008e6:	f7ff fed3 	bl	8000690 <MCAL_RCC_GetPCLK1_Freq>
 80008ea:	6178      	str	r0, [r7, #20]

	/* 9) Program baud rate register */
	BRR = MACRO_USART_BRR(Pclk, USARTx_Config->BaudRate);
 80008ec:	697a      	ldr	r2, [r7, #20]
 80008ee:	4613      	mov	r3, r2
 80008f0:	009b      	lsls	r3, r3, #2
 80008f2:	4413      	add	r3, r2
 80008f4:	009a      	lsls	r2, r3, #2
 80008f6:	441a      	add	r2, r3
 80008f8:	683b      	ldr	r3, [r7, #0]
 80008fa:	685b      	ldr	r3, [r3, #4]
 80008fc:	009b      	lsls	r3, r3, #2
 80008fe:	fbb2 f3f3 	udiv	r3, r2, r3
 8000902:	4a2c      	ldr	r2, [pc, #176]	; (80009b4 <MCAL_USART_Init+0x1b8>)
 8000904:	fba2 2303 	umull	r2, r3, r2, r3
 8000908:	095b      	lsrs	r3, r3, #5
 800090a:	0119      	lsls	r1, r3, #4
 800090c:	697a      	ldr	r2, [r7, #20]
 800090e:	4613      	mov	r3, r2
 8000910:	009b      	lsls	r3, r3, #2
 8000912:	4413      	add	r3, r2
 8000914:	009a      	lsls	r2, r3, #2
 8000916:	441a      	add	r2, r3
 8000918:	683b      	ldr	r3, [r7, #0]
 800091a:	685b      	ldr	r3, [r3, #4]
 800091c:	009b      	lsls	r3, r3, #2
 800091e:	fbb2 f2f3 	udiv	r2, r2, r3
 8000922:	4b24      	ldr	r3, [pc, #144]	; (80009b4 <MCAL_USART_Init+0x1b8>)
 8000924:	fba3 0302 	umull	r0, r3, r3, r2
 8000928:	095b      	lsrs	r3, r3, #5
 800092a:	2064      	movs	r0, #100	; 0x64
 800092c:	fb00 f303 	mul.w	r3, r0, r3
 8000930:	1ad3      	subs	r3, r2, r3
 8000932:	011b      	lsls	r3, r3, #4
 8000934:	3332      	adds	r3, #50	; 0x32
 8000936:	4a1f      	ldr	r2, [pc, #124]	; (80009b4 <MCAL_USART_Init+0x1b8>)
 8000938:	fba2 2303 	umull	r2, r3, r2, r3
 800093c:	095b      	lsrs	r3, r3, #5
 800093e:	f003 030f 	and.w	r3, r3, #15
 8000942:	430b      	orrs	r3, r1
 8000944:	613b      	str	r3, [r7, #16]
	USARTx->USART_BRR = BRR;
 8000946:	687b      	ldr	r3, [r7, #4]
 8000948:	693a      	ldr	r2, [r7, #16]
 800094a:	609a      	str	r2, [r3, #8]

	/* 10) Enable interrupts (do NOT overwrite CR1, use |=) */
	if (USARTx_Config->Enable_IQR != USART_Enable_IQR_None)
 800094c:	683b      	ldr	r3, [r7, #0]
 800094e:	7b1b      	ldrb	r3, [r3, #12]
 8000950:	2b00      	cmp	r3, #0
 8000952:	d022      	beq.n	800099a <MCAL_USART_Init+0x19e>
	{
		USARTx->USART_CR1 |= USARTx_Config->Enable_IQR;
 8000954:	687b      	ldr	r3, [r7, #4]
 8000956:	68db      	ldr	r3, [r3, #12]
 8000958:	683a      	ldr	r2, [r7, #0]
 800095a:	7b12      	ldrb	r2, [r2, #12]
 800095c:	431a      	orrs	r2, r3
 800095e:	687b      	ldr	r3, [r7, #4]
 8000960:	60da      	str	r2, [r3, #12]

		/* Enable NVIC for USART IRQ line */
		if (USARTx == USART1)      { NVIC_IRQ37_USART1_ENABLE; }
 8000962:	687b      	ldr	r3, [r7, #4]
 8000964:	4a10      	ldr	r2, [pc, #64]	; (80009a8 <MCAL_USART_Init+0x1ac>)
 8000966:	4293      	cmp	r3, r2
 8000968:	d106      	bne.n	8000978 <MCAL_USART_Init+0x17c>
 800096a:	4b13      	ldr	r3, [pc, #76]	; (80009b8 <MCAL_USART_Init+0x1bc>)
 800096c:	681b      	ldr	r3, [r3, #0]
 800096e:	4a12      	ldr	r2, [pc, #72]	; (80009b8 <MCAL_USART_Init+0x1bc>)
 8000970:	f043 0320 	orr.w	r3, r3, #32
 8000974:	6013      	str	r3, [r2, #0]
		else if (USARTx == USART2) { NVIC_IRQ38_USART2_ENABLE; }
		else                       { NVIC_IRQ39_USART3_ENABLE; }
	}
}
 8000976:	e010      	b.n	800099a <MCAL_USART_Init+0x19e>
		else if (USARTx == USART2) { NVIC_IRQ38_USART2_ENABLE; }
 8000978:	687b      	ldr	r3, [r7, #4]
 800097a:	4a0d      	ldr	r2, [pc, #52]	; (80009b0 <MCAL_USART_Init+0x1b4>)
 800097c:	4293      	cmp	r3, r2
 800097e:	d106      	bne.n	800098e <MCAL_USART_Init+0x192>
 8000980:	4b0d      	ldr	r3, [pc, #52]	; (80009b8 <MCAL_USART_Init+0x1bc>)
 8000982:	681b      	ldr	r3, [r3, #0]
 8000984:	4a0c      	ldr	r2, [pc, #48]	; (80009b8 <MCAL_USART_Init+0x1bc>)
 8000986:	f043 0340 	orr.w	r3, r3, #64	; 0x40
 800098a:	6013      	str	r3, [r2, #0]
}
 800098c:	e005      	b.n	800099a <MCAL_USART_Init+0x19e>
		else                       { NVIC_IRQ39_USART3_ENABLE; }
 800098e:	4b0a      	ldr	r3, [pc, #40]	; (80009b8 <MCAL_USART_Init+0x1bc>)
 8000990:	681b      	ldr	r3, [r3, #0]
 8000992:	4a09      	ldr	r2, [pc, #36]	; (80009b8 <MCAL_USART_Init+0x1bc>)
 8000994:	f043 0380 	orr.w	r3, r3, #128	; 0x80
 8000998:	6013      	str	r3, [r2, #0]
}
 800099a:	bf00      	nop
 800099c:	3718      	adds	r7, #24
 800099e:	46bd      	mov	sp, r7
 80009a0:	bd80      	pop	{r7, pc}
 80009a2:	bf00      	nop
 80009a4:	2000001c 	.word	0x2000001c
 80009a8:	40013800 	.word	0x40013800
 80009ac:	40021000 	.word	0x40021000
 80009b0:	40004400 	.word	0x40004400
 80009b4:	51eb851f 	.word	0x51eb851f
 80009b8:	e000e104 	.word	0xe000e104

080009bc <MCAL_USART_TransmitData>:

/* ============================================================
 *                 Transmit / Receive (Polling)
 * ============================================================ */
void MCAL_USART_TransmitData(USART_TypeDef *USARTx, uint16_t *pTxBuffer, enum PollingMechanism PollEn)
{
 80009bc:	b580      	push	{r7, lr}
 80009be:	b086      	sub	sp, #24
 80009c0:	af00      	add	r7, sp, #0
 80009c2:	60f8      	str	r0, [r7, #12]
 80009c4:	60b9      	str	r1, [r7, #8]
 80009c6:	4613      	mov	r3, r2
 80009c8:	71fb      	strb	r3, [r7, #7]
	uint8_t idx = USART_GetIndex(USARTx);
 80009ca:	68f8      	ldr	r0, [r7, #12]
 80009cc:	f7ff fe8c 	bl	80006e8 <USART_GetIndex>
 80009d0:	4603      	mov	r3, r0
 80009d2:	75fb      	strb	r3, [r7, #23]
	USART_Config *cfg = g_USART_Config[idx];
 80009d4:	7dfb      	ldrb	r3, [r7, #23]
 80009d6:	4a13      	ldr	r2, [pc, #76]	; (8000a24 <MCAL_USART_TransmitData+0x68>)
 80009d8:	f852 3023 	ldr.w	r3, [r2, r3, lsl #2]
 80009dc:	613b      	str	r3, [r7, #16]
	if (!cfg) return;
 80009de:	693b      	ldr	r3, [r7, #16]
 80009e0:	2b00      	cmp	r3, #0
 80009e2:	d01a      	beq.n	8000a1a <MCAL_USART_TransmitData+0x5e>

	/* TXE (bit 7) = data register empty */
	if (PollEn == Enable)
 80009e4:	79fb      	ldrb	r3, [r7, #7]
 80009e6:	2b00      	cmp	r3, #0
 80009e8:	d106      	bne.n	80009f8 <MCAL_USART_TransmitData+0x3c>
	{
		while (!(USARTx->USART_SR & (1U << 7)));
 80009ea:	bf00      	nop
 80009ec:	68fb      	ldr	r3, [r7, #12]
 80009ee:	681b      	ldr	r3, [r3, #0]
 80009f0:	f003 0380 	and.w	r3, r3, #128	; 0x80
 80009f4:	2b00      	cmp	r3, #0
 80009f6:	d0f9      	beq.n	80009ec <MCAL_USART_TransmitData+0x30>
		else
			USARTx->USART_DR = (*pTxBuffer & 0x00FF);
	}
	else
	{
		if (cfg->Parity == USART_NoParity)
 80009f8:	693b      	ldr	r3, [r7, #16]
 80009fa:	7a5b      	ldrb	r3, [r3, #9]
 80009fc:	2b00      	cmp	r3, #0
 80009fe:	d105      	bne.n	8000a0c <MCAL_USART_TransmitData+0x50>
			USARTx->USART_DR = (*pTxBuffer & 0x00FF);
 8000a00:	68bb      	ldr	r3, [r7, #8]
 8000a02:	881b      	ldrh	r3, [r3, #0]
 8000a04:	b2da      	uxtb	r2, r3
 8000a06:	68fb      	ldr	r3, [r7, #12]
 8000a08:	605a      	str	r2, [r3, #4]
 8000a0a:	e007      	b.n	8000a1c <MCAL_USART_TransmitData+0x60>
		else
			USARTx->USART_DR = (*pTxBuffer & 0x007F);
 8000a0c:	68bb      	ldr	r3, [r7, #8]
 8000a0e:	881b      	ldrh	r3, [r3, #0]
 8000a10:	f003 027f 	and.w	r2, r3, #127	; 0x7f
 8000a14:	68fb      	ldr	r3, [r7, #12]
 8000a16:	605a      	str	r2, [r3, #4]
 8000a18:	e000      	b.n	8000a1c <MCAL_USART_TransmitData+0x60>
	if (!cfg) return;
 8000a1a:	bf00      	nop
	}
}
 8000a1c:	3718      	adds	r7, #24
 8000a1e:	46bd      	mov	sp, r7
 8000a20:	bd80      	pop	{r7, pc}
 8000a22:	bf00      	nop
 8000a24:	2000001c 	.word	0x2000001c

08000a28 <MCAL_USART_ReceiveData>:

void MCAL_USART_ReceiveData(USART_TypeDef *USARTx, uint16_t *pRxBuffer, enum PollingMechanism PollEn)
{
 8000a28:	b580      	push	{r7, lr}
 8000a2a:	b086      	sub	sp, #24
 8000a2c:	af00      	add	r7, sp, #0
 8000a2e:	60f8      	str	r0, [r7, #12]
 8000a30:	60b9      	str	r1, [r7, #8]
 8000a32:	4613      	mov	r3, r2
 8000a34:	71fb      	strb	r3, [r7, #7]
	uint8_t idx = USART_GetIndex(USARTx);
 8000a36:	68f8      	ldr	r0, [r7, #12]
 8000a38:	f7ff fe56 	bl	80006e8 <USART_GetIndex>
 8000a3c:	4603      	mov	r3, r0
 8000a3e:	75fb      	strb	r3, [r7, #23]
	USART_Config *cfg = g_USART_Config[idx];
 8000a40:	7dfb      	ldrb	r3, [r7, #23]
 8000a42:	4a15      	ldr	r2, [pc, #84]	; (8000a98 <MCAL_USART_ReceiveData+0x70>)
 8000a44:	f852 3023 	ldr.w	r3, [r2, r3, lsl #2]
 8000a48:	613b      	str	r3, [r7, #16]
	if (!cfg) return;
 8000a4a:	693b      	ldr	r3, [r7, #16]
 8000a4c:	2b00      	cmp	r3, #0
 8000a4e:	d01e      	beq.n	8000a8e <MCAL_USART_ReceiveData+0x66>

	/* RXNE (bit 5) = read data register not empty */
	if (PollEn == Enable)
 8000a50:	79fb      	ldrb	r3, [r7, #7]
 8000a52:	2b00      	cmp	r3, #0
 8000a54:	d106      	bne.n	8000a64 <MCAL_USART_ReceiveData+0x3c>
	{
		while (!(USARTx->USART_SR & (1U << 5)));
 8000a56:	bf00      	nop
 8000a58:	68fb      	ldr	r3, [r7, #12]
 8000a5a:	681b      	ldr	r3, [r3, #0]
 8000a5c:	f003 0320 	and.w	r3, r3, #32
 8000a60:	2b00      	cmp	r3, #0
 8000a62:	d0f9      	beq.n	8000a58 <MCAL_USART_ReceiveData+0x30>
		else
			*pRxBuffer = (uint16_t)(USARTx->USART_DR & 0x00FF);
	}
	else
	{
		if (cfg->Parity == USART_NoParity)
 8000a64:	693b      	ldr	r3, [r7, #16]
 8000a66:	7a5b      	ldrb	r3, [r3, #9]
 8000a68:	2b00      	cmp	r3, #0
 8000a6a:	d107      	bne.n	8000a7c <MCAL_USART_ReceiveData+0x54>
			*pRxBuffer = (uint16_t)(USARTx->USART_DR & 0x00FF);
 8000a6c:	68fb      	ldr	r3, [r7, #12]
 8000a6e:	685b      	ldr	r3, [r3, #4]
 8000a70:	b29b      	uxth	r3, r3
 8000a72:	b2db      	uxtb	r3, r3
 8000a74:	b29a      	uxth	r2, r3
 8000a76:	68bb      	ldr	r3, [r7, #8]
 8000a78:	801a      	strh	r2, [r3, #0]
 8000a7a:	e009      	b.n	8000a90 <MCAL_USART_ReceiveData+0x68>
		else
			*pRxBuffer = (uint16_t)(USARTx->USART_DR & 0x007F);
 8000a7c:	68fb      	ldr	r3, [r7, #12]
 8000a7e:	685b      	ldr	r3, [r3, #4]
 8000a80:	b29b      	uxth	r3, r3
 8000a82:	f003 037f 	and.w	r3, r3, #127	; 0x7f
 8000a86:	b29a      	uxth	r2, r3
 8000a88:	68bb      	ldr	r3, [r7, #8]
 8000a8a:	801a      	strh	r2, [r3, #0]
 8000a8c:	e000      	b.n	8000a90 <MCAL_USART_ReceiveData+0x68>
	if (!cfg) return;
 8000a8e:	bf00      	nop
	}
}
 8000a90:	3718      	adds	r7, #24
 8000a92:	46bd      	mov	sp, r7
 8000a94:	bd80      	pop	{r7, pc}
 8000a96:	bf00      	nop
 8000a98:	2000001c 	.word	0x2000001c

08000a9c <USART1_IRQHandler>:
 * - Many error flags are cleared by reading SR then DR
 * Here we do minimal safe handling and then call user's callback.
 */

void USART1_IRQHandler(void)
{
 8000a9c:	b580      	push	{r7, lr}
 8000a9e:	b084      	sub	sp, #16
 8000aa0:	af00      	add	r7, sp, #0
	USART_Config *cfg = g_USART_Config[0];
 8000aa2:	4b10      	ldr	r3, [pc, #64]	; (8000ae4 <USART1_IRQHandler+0x48>)
 8000aa4:	681b      	ldr	r3, [r3, #0]
 8000aa6:	60fb      	str	r3, [r7, #12]
	if (!cfg) return;
 8000aa8:	68fb      	ldr	r3, [r7, #12]
 8000aaa:	2b00      	cmp	r3, #0
 8000aac:	d015      	beq.n	8000ada <USART1_IRQHandler+0x3e>

	/* minimal clear sequence (optional but safer) */
	volatile uint32_t sr = USART1->USART_SR;
 8000aae:	4b0e      	ldr	r3, [pc, #56]	; (8000ae8 <USART1_IRQHandler+0x4c>)
 8000ab0:	681b      	ldr	r3, [r3, #0]
 8000ab2:	60bb      	str	r3, [r7, #8]
	(void)sr;
 8000ab4:	68bb      	ldr	r3, [r7, #8]
	/* If RXNE set, reading DR clears it */
	if (USART1->USART_SR & (1U << 5))
 8000ab6:	4b0c      	ldr	r3, [pc, #48]	; (8000ae8 <USART1_IRQHandler+0x4c>)
 8000ab8:	681b      	ldr	r3, [r3, #0]
 8000aba:	f003 0320 	and.w	r3, r3, #32
 8000abe:	2b00      	cmp	r3, #0
 8000ac0:	d003      	beq.n	8000aca <USART1_IRQHandler+0x2e>
	{
		volatile uint32_t dr = USART1->USART_DR;
 8000ac2:	4b09      	ldr	r3, [pc, #36]	; (8000ae8 <USART1_IRQHandler+0x4c>)
 8000ac4:	685b      	ldr	r3, [r3, #4]
 8000ac6:	607b      	str	r3, [r7, #4]
		(void)dr;
 8000ac8:	687b      	ldr	r3, [r7, #4]
	}

	if (cfg->P_IRQ_CallBack) cfg->P_IRQ_CallBack();
 8000aca:	68fb      	ldr	r3, [r7, #12]
 8000acc:	691b      	ldr	r3, [r3, #16]
 8000ace:	2b00      	cmp	r3, #0
 8000ad0:	d004      	beq.n	8000adc <USART1_IRQHandler+0x40>
 8000ad2:	68fb      	ldr	r3, [r7, #12]
 8000ad4:	691b      	ldr	r3, [r3, #16]
 8000ad6:	4798      	blx	r3
 8000ad8:	e000      	b.n	8000adc <USART1_IRQHandler+0x40>
	if (!cfg) return;
 8000ada:	bf00      	nop
}
 8000adc:	3710      	adds	r7, #16
 8000ade:	46bd      	mov	sp, r7
 8000ae0:	bd80      	pop	{r7, pc}
 8000ae2:	bf00      	nop
 8000ae4:	2000001c 	.word	0x2000001c
 8000ae8:	40013800 	.word	0x40013800

08000aec <USART2_IRQHandler>:

void USART2_IRQHandler(void)
{
 8000aec:	b580      	push	{r7, lr}
 8000aee:	b084      	sub	sp, #16
 8000af0:	af00      	add	r7, sp, #0
	USART_Config *cfg = g_USART_Config[1];
 8000af2:	4b10      	ldr	r3, [pc, #64]	; (8000b34 <USART2_IRQHandler+0x48>)
 8000af4:	685b      	ldr	r3, [r3, #4]
 8000af6:	60fb      	str	r3, [r7, #12]
	if (!cfg) return;
 8000af8:	68fb      	ldr	r3, [r7, #12]
 8000afa:	2b00      	cmp	r3, #0
 8000afc:	d015      	beq.n	8000b2a <USART2_IRQHandler+0x3e>

	volatile uint32_t sr = USART2->USART_SR;
 8000afe:	4b0e      	ldr	r3, [pc, #56]	; (8000b38 <USART2_IRQHandler+0x4c>)
 8000b00:	681b      	ldr	r3, [r3, #0]
 8000b02:	60bb      	str	r3, [r7, #8]
	(void)sr;
 8000b04:	68bb      	ldr	r3, [r7, #8]
	if (USART2->USART_SR & (1U << 5))
 8000b06:	4b0c      	ldr	r3, [pc, #48]	; (8000b38 <USART2_IRQHandler+0x4c>)
 8000b08:	681b      	ldr	r3, [r3, #0]
 8000b0a:	f003 0320 	and.w	r3, r3, #32
 8000b0e:	2b00      	cmp	r3, #0
 8000b10:	d003      	beq.n	8000b1a <USART2_IRQHandler+0x2e>
	{
		volatile uint32_t dr = USART2->USART_DR;
 8000b12:	4b09      	ldr	r3, [pc, #36]	; (8000b38 <USART2_IRQHandler+0x4c>)
 8000b14:	685b      	ldr	r3, [r3, #4]
 8000b16:	607b      	str	r3, [r7, #4]
		(void)dr;
 8000b18:	687b      	ldr	r3, [r7, #4]
	}

	if (cfg->P_IRQ_CallBack) cfg->P_IRQ_CallBack();
 8000b1a:	68fb      	ldr	r3, [r7, #12]
 8000b1c:	691b      	ldr	r3, [r3, #16]
 8000b1e:	2b00      	cmp	r3, #0
 8000b20:	d004      	beq.n	8000b2c <USART2_IRQHandler+0x40>
 8000b22:	68fb      	ldr	r3, [r7, #12]
 8000b24:	691b      	ldr	r3, [r3, #16]
 8000b26:	4798      	blx	r3
 8000b28:	e000      	b.n	8000b2c <USART2_IRQHandler+0x40>
	if (!cfg) return;
 8000b2a:	bf00      	nop
}
 8000b2c:	3710      	adds	r7, #16
 8000b2e:	46bd      	mov	sp, r7
 8000b30:	bd80      	pop	{r7, pc}
 8000b32:	bf00      	nop
 8000b34:	2000001c 	.word	0x2000001c
 8000b38:	40004400 	.word	0x40004400

08000b3c <USART3_IRQHandler>:

void USART3_IRQHandler(void)
{
 8000b3c:	b580      	push	{r7, lr}
 8000b3e:	b084      	sub	sp, #16
 8000b40:	af00      	add	r7, sp, #0
	USART_Config *cfg = g_USART_Config[2];
 8000b42:	4b10      	ldr	r3, [pc, #64]	; (8000b84 <USART3_IRQHandler+0x48>)
 8000b44:	689b      	ldr	r3, [r3, #8]
 8000b46:	60fb      	str	r3, [r7, #12]
	if (!cfg) return;
 8000b48:	68fb      	ldr	r3, [r7, #12]
 8000b4a:	2b00      	cmp	r3, #0
 8000b4c:	d015      	beq.n	8000b7a <USART3_IRQHandler+0x3e>

	volatile uint32_t sr = USART3->USART_SR;
 8000b4e:	4b0e      	ldr	r3, [pc, #56]	; (8000b88 <USART3_IRQHandler+0x4c>)
 8000b50:	681b      	ldr	r3, [r3, #0]
 8000b52:	60bb      	str	r3, [r7, #8]
	(void)sr;
 8000b54:	68bb      	ldr	r3, [r7, #8]
	if (USART3->USART_SR & (1U << 5))
 8000b56:	4b0c      	ldr	r3, [pc, #48]	; (8000b88 <USART3_IRQHandler+0x4c>)
 8000b58:	681b      	ldr	r3, [r3, #0]
 8000b5a:	f003 0320 	and.w	r3, r3, #32
 8000b5e:	2b00      	cmp	r3, #0
 8000b60:	d003      	beq.n	8000b6a <USART3_IRQHandler+0x2e>
	{
		volatile uint32_t dr = USART3->USART_DR;
 8000b62:	4b09      	ldr	r3, [pc, #36]	; (8000b88 <USART3_IRQHandler+0x4c>)
 8000b64:	685b      	ldr	r3, [r3, #4]
 8000b66:	607b      	str	r3, [r7, #4]
		(void)dr;
 8000b68:	687b      	ldr	r3, [r7, #4]
	}

	if (cfg->P_IRQ_CallBack) cfg->P_IRQ_CallBack();
 8000b6a:	68fb      	ldr	r3, [r7, #12]
 8000b6c:	691b      	ldr	r3, [r3, #16]
 8000b6e:	2b00      	cmp	r3, #0
 8000b70:	d004      	beq.n	8000b7c <USART3_IRQHandler+0x40>
 8000b72:	68fb      	ldr	r3, [r7, #12]
 8000b74:	691b      	ldr	r3, [r3, #16]
 8000b76:	4798      	blx	r3
 8000b78:	e000      	b.n	8000b7c <USART3_IRQHandler+0x40>
	if (!cfg) return;
 8000b7a:	bf00      	nop
}
 8000b7c:	3710      	adds	r7, #16
 8000b7e:	46bd      	mov	sp, r7
 8000b80:	bd80      	pop	{r7, pc}
 8000b82:	bf00      	nop
 8000b84:	2000001c 	.word	0x2000001c
 8000b88:	40004800 	.word	0x40004800

08000b8c <__libc_init_array>:
 8000b8c:	b570      	push	{r4, r5, r6, lr}
 8000b8e:	2500      	movs	r5, #0
 8000b90:	4e0c      	ldr	r6, [pc, #48]	; (8000bc4 <__libc_init_array+0x38>)
 8000b92:	4c0d      	ldr	r4, [pc, #52]	; (8000bc8 <__libc_init_array+0x3c>)
 8000b94:	1ba4      	subs	r4, r4, r6
 8000b96:	10a4      	asrs	r4, r4, #2
 8000b98:	42a5      	cmp	r5, r4
 8000b9a:	d109      	bne.n	8000bb0 <__libc_init_array+0x24>
 8000b9c:	f000 f81a 	bl	8000bd4 <_init>
 8000ba0:	2500      	movs	r5, #0
 8000ba2:	4e0a      	ldr	r6, [pc, #40]	; (8000bcc <__libc_init_array+0x40>)
 8000ba4:	4c0a      	ldr	r4, [pc, #40]	; (8000bd0 <__libc_init_array+0x44>)
 8000ba6:	1ba4      	subs	r4, r4, r6
 8000ba8:	10a4      	asrs	r4, r4, #2
 8000baa:	42a5      	cmp	r5, r4
 8000bac:	d105      	bne.n	8000bba <__libc_init_array+0x2e>
 8000bae:	bd70      	pop	{r4, r5, r6, pc}
 8000bb0:	f856 3025 	ldr.w	r3, [r6, r5, lsl #2]
 8000bb4:	4798      	blx	r3
 8000bb6:	3501      	adds	r5, #1
 8000bb8:	e7ee      	b.n	8000b98 <__libc_init_array+0xc>
 8000bba:	f856 3025 	ldr.w	r3, [r6, r5, lsl #2]
 8000bbe:	4798      	blx	r3
 8000bc0:	3501      	adds	r5, #1
 8000bc2:	e7f2      	b.n	8000baa <__libc_init_array+0x1e>
 8000bc4:	08000c4c 	.word	0x08000c4c
 8000bc8:	08000c4c 	.word	0x08000c4c
 8000bcc:	08000c4c 	.word	0x08000c4c
 8000bd0:	08000c50 	.word	0x08000c50

08000bd4 <_init>:
 8000bd4:	b5f8      	push	{r3, r4, r5, r6, r7, lr}
 8000bd6:	bf00      	nop
 8000bd8:	bcf8      	pop	{r3, r4, r5, r6, r7}
 8000bda:	bc08      	pop	{r3}
 8000bdc:	469e      	mov	lr, r3
 8000bde:	4770      	bx	lr

08000be0 <_fini>:
 8000be0:	b5f8      	push	{r3, r4, r5, r6, r7, lr}
 8000be2:	bf00      	nop
 8000be4:	bcf8      	pop	{r3, r4, r5, r6, r7}
 8000be6:	bc08      	pop	{r3}
 8000be8:	469e      	mov	lr, r3
 8000bea:	4770      	bx	lr
